(dp0
S'IW_ASSERTION_CHANNEL_NEXTPEER'
p1
S'1'
p2
sS'IW_MKF_S3ENEXTPEER_BUILD'
p3
NsS'IW_TRACE_CHANNEL_NEXTPEER_VERBOSE'
p4
S'2'
p5
sS'IW_PLATFORM_LINUX'
p6
NsS'IW_DEBUG'
p7
NsS'IW_SDK'
p8
NsS'S3E_EXT_NEXTPEER'
p9
NsS'IW_USE_ASSERTIONS'
p10
NsS'S3E_ANDROID'
p11
NsS'I3D_OS_LINUX'
p12
NsS'S3E_BUILD_EXT'
p13
NsS'IW_USE_TRACING'
p14
NsS'IW_MKF_EDK'
p15
NsS'I3D_PLATFORM_LINUX'
p16
NsS'I3D_ARCH_ARM'
p17
NsS'ANDROID'
p18
NsS'IW_TRACE_CHANNEL_NEXTPEER'
p19
g2
s.