	.arch armv5te
	.eabi_attribute 27, 3
	.fpu vfp
	.eabi_attribute 20, 1
	.eabi_attribute 21, 1
	.eabi_attribute 23, 3
	.eabi_attribute 24, 1
	.eabi_attribute 25, 1
	.eabi_attribute 26, 2
	.eabi_attribute 30, 6
	.eabi_attribute 18, 4
	.file	"s3eNextpeer.cpp"
	.text
.Ltext0:
	.section	.text._Z15s3eNextpeerInitv,"ax",%progbits
	.align	2
	.global	_Z15s3eNextpeerInitv
	.hidden	_Z15s3eNextpeerInitv
	.type	_Z15s3eNextpeerInitv, %function
_Z15s3eNextpeerInitv:
.LFB0:
	.file 1 "C:\\Marmalade\\7.2\\examples\\HelloWorld\\s3eNextpeer\\source\\generic\\s3eNextpeer.cpp"
	.loc 1 15 0
	@ args = 0, pretend = 0, frame = 0
	@ frame_needed = 0, uses_anonymous_args = 0
	stmfd	sp!, {r4, lr}
.LCFI0:
	.loc 1 17 0
	bl	_Z24s3eNextpeerInit_platformv(PLT)
	mov	r3, r0
	.loc 1 18 0
	mov	r0, r3
	ldmfd	sp!, {r4, pc}
.LFE0:
	.size	_Z15s3eNextpeerInitv, .-_Z15s3eNextpeerInitv
	.section	.text._Z20s3eNextpeerTerminatev,"ax",%progbits
	.align	2
	.global	_Z20s3eNextpeerTerminatev
	.hidden	_Z20s3eNextpeerTerminatev
	.type	_Z20s3eNextpeerTerminatev, %function
_Z20s3eNextpeerTerminatev:
.LFB1:
	.loc 1 21 0
	@ args = 0, pretend = 0, frame = 0
	@ frame_needed = 0, uses_anonymous_args = 0
	stmfd	sp!, {r4, lr}
.LCFI1:
	.loc 1 23 0
	bl	_Z29s3eNextpeerTerminate_platformv(PLT)
	.loc 1 24 0
	ldmfd	sp!, {r4, pc}
.LFE1:
	.size	_Z20s3eNextpeerTerminatev, .-_Z20s3eNextpeerTerminatev
	.section	.text.s3eNextpeerInitWithProductKey,"ax",%progbits
	.align	2
	.global	s3eNextpeerInitWithProductKey
	.hidden	s3eNextpeerInitWithProductKey
	.type	s3eNextpeerInitWithProductKey, %function
s3eNextpeerInitWithProductKey:
.LFB2:
	.loc 1 27 0
	@ args = 0, pretend = 0, frame = 8
	@ frame_needed = 0, uses_anonymous_args = 0
	str	lr, [sp, #-4]!
.LCFI2:
	sub	sp, sp, #12
.LCFI3:
	str	r0, [sp, #4]
	.loc 1 28 0
	ldr	r0, [sp, #4]
	bl	_Z38s3eNextpeerInitWithProductKey_platformPKc(PLT)
	.loc 1 29 0
	add	sp, sp, #12
	ldmfd	sp!, {pc}
.LFE2:
	.size	s3eNextpeerInitWithProductKey, .-s3eNextpeerInitWithProductKey
	.section	.text.s3eNextpeerLaunchDashboard,"ax",%progbits
	.align	2
	.global	s3eNextpeerLaunchDashboard
	.hidden	s3eNextpeerLaunchDashboard
	.type	s3eNextpeerLaunchDashboard, %function
s3eNextpeerLaunchDashboard:
.LFB3:
	.loc 1 32 0
	@ args = 0, pretend = 0, frame = 0
	@ frame_needed = 0, uses_anonymous_args = 0
	stmfd	sp!, {r4, lr}
.LCFI4:
	.loc 1 33 0
	bl	_Z35s3eNextpeerLaunchDashboard_platformv(PLT)
	.loc 1 34 0
	ldmfd	sp!, {r4, pc}
.LFE3:
	.size	s3eNextpeerLaunchDashboard, .-s3eNextpeerLaunchDashboard
	.section	.text.s3eNextpeerLaunchDashboardWithCurrencyAmount,"ax",%progbits
	.align	2
	.global	s3eNextpeerLaunchDashboardWithCurrencyAmount
	.hidden	s3eNextpeerLaunchDashboardWithCurrencyAmount
	.type	s3eNextpeerLaunchDashboardWithCurrencyAmount, %function
s3eNextpeerLaunchDashboardWithCurrencyAmount:
.LFB4:
	.loc 1 37 0
	@ args = 0, pretend = 0, frame = 8
	@ frame_needed = 0, uses_anonymous_args = 0
	str	lr, [sp, #-4]!
.LCFI5:
	sub	sp, sp, #12
.LCFI6:
	str	r0, [sp, #4]
	.loc 1 38 0
	ldr	r0, [sp, #4]
	bl	_Z53s3eNextpeerLaunchDashboardWithCurrencyAmount_platformj(PLT)
	.loc 1 39 0
	add	sp, sp, #12
	ldmfd	sp!, {pc}
.LFE4:
	.size	s3eNextpeerLaunchDashboardWithCurrencyAmount, .-s3eNextpeerLaunchDashboardWithCurrencyAmount
	.section	.text.s3eNextpeerDismissDashboard,"ax",%progbits
	.align	2
	.global	s3eNextpeerDismissDashboard
	.hidden	s3eNextpeerDismissDashboard
	.type	s3eNextpeerDismissDashboard, %function
s3eNextpeerDismissDashboard:
.LFB5:
	.loc 1 42 0
	@ args = 0, pretend = 0, frame = 0
	@ frame_needed = 0, uses_anonymous_args = 0
	stmfd	sp!, {r4, lr}
.LCFI7:
	.loc 1 43 0
	bl	_Z36s3eNextpeerDismissDashboard_platformv(PLT)
	.loc 1 44 0
	ldmfd	sp!, {r4, pc}
.LFE5:
	.size	s3eNextpeerDismissDashboard, .-s3eNextpeerDismissDashboard
	.section	.text.s3eNextpeerShutDown,"ax",%progbits
	.align	2
	.global	s3eNextpeerShutDown
	.hidden	s3eNextpeerShutDown
	.type	s3eNextpeerShutDown, %function
s3eNextpeerShutDown:
.LFB6:
	.loc 1 47 0
	@ args = 0, pretend = 0, frame = 0
	@ frame_needed = 0, uses_anonymous_args = 0
	stmfd	sp!, {r4, lr}
.LCFI8:
	.loc 1 48 0
	bl	_Z28s3eNextpeerShutDown_platformv(PLT)
	.loc 1 49 0
	ldmfd	sp!, {r4, pc}
.LFE6:
	.size	s3eNextpeerShutDown, .-s3eNextpeerShutDown
	.section	.text.s3eNextpeerReportScoreForCurrentTournament,"ax",%progbits
	.align	2
	.global	s3eNextpeerReportScoreForCurrentTournament
	.hidden	s3eNextpeerReportScoreForCurrentTournament
	.type	s3eNextpeerReportScoreForCurrentTournament, %function
s3eNextpeerReportScoreForCurrentTournament:
.LFB7:
	.loc 1 52 0
	@ args = 0, pretend = 0, frame = 8
	@ frame_needed = 0, uses_anonymous_args = 0
	str	lr, [sp, #-4]!
.LCFI9:
	sub	sp, sp, #12
.LCFI10:
	str	r0, [sp, #4]
	.loc 1 53 0
	ldr	r0, [sp, #4]
	bl	_Z51s3eNextpeerReportScoreForCurrentTournament_platformj(PLT)
	.loc 1 54 0
	add	sp, sp, #12
	ldmfd	sp!, {pc}
.LFE7:
	.size	s3eNextpeerReportScoreForCurrentTournament, .-s3eNextpeerReportScoreForCurrentTournament
	.section	.text.s3eNextpeerIsCurrentlyInTournament,"ax",%progbits
	.align	2
	.global	s3eNextpeerIsCurrentlyInTournament
	.hidden	s3eNextpeerIsCurrentlyInTournament
	.type	s3eNextpeerIsCurrentlyInTournament, %function
s3eNextpeerIsCurrentlyInTournament:
.LFB8:
	.loc 1 57 0
	@ args = 0, pretend = 0, frame = 0
	@ frame_needed = 0, uses_anonymous_args = 0
	stmfd	sp!, {r4, lr}
.LCFI11:
	.loc 1 58 0
	bl	_Z43s3eNextpeerIsCurrentlyInTournament_platformv(PLT)
	mov	r3, r0
	.loc 1 59 0
	mov	r0, r3
	ldmfd	sp!, {r4, pc}
.LFE8:
	.size	s3eNextpeerIsCurrentlyInTournament, .-s3eNextpeerIsCurrentlyInTournament
	.section	.text.s3eNextpeerTimeLeftInTournament,"ax",%progbits
	.align	2
	.global	s3eNextpeerTimeLeftInTournament
	.hidden	s3eNextpeerTimeLeftInTournament
	.type	s3eNextpeerTimeLeftInTournament, %function
s3eNextpeerTimeLeftInTournament:
.LFB9:
	.loc 1 62 0
	@ args = 0, pretend = 0, frame = 0
	@ frame_needed = 0, uses_anonymous_args = 0
	stmfd	sp!, {r4, lr}
.LCFI12:
	.loc 1 63 0
	bl	_Z40s3eNextpeerTimeLeftInTournament_platformv(PLT)
	mov	r3, r0
	.loc 1 64 0
	mov	r0, r3
	ldmfd	sp!, {r4, pc}
.LFE9:
	.size	s3eNextpeerTimeLeftInTournament, .-s3eNextpeerTimeLeftInTournament
	.section	.text.s3eNextpeerReportForfeitForCurrentTournament,"ax",%progbits
	.align	2
	.global	s3eNextpeerReportForfeitForCurrentTournament
	.hidden	s3eNextpeerReportForfeitForCurrentTournament
	.type	s3eNextpeerReportForfeitForCurrentTournament, %function
s3eNextpeerReportForfeitForCurrentTournament:
.LFB10:
	.loc 1 67 0
	@ args = 0, pretend = 0, frame = 0
	@ frame_needed = 0, uses_anonymous_args = 0
	stmfd	sp!, {r4, lr}
.LCFI13:
	.loc 1 68 0
	bl	_Z53s3eNextpeerReportForfeitForCurrentTournament_platformv(PLT)
	.loc 1 69 0
	ldmfd	sp!, {r4, pc}
.LFE10:
	.size	s3eNextpeerReportForfeitForCurrentTournament, .-s3eNextpeerReportForfeitForCurrentTournament
	.section	.text.s3eNextpeerPushDataToOtherPlayers,"ax",%progbits
	.align	2
	.global	s3eNextpeerPushDataToOtherPlayers
	.hidden	s3eNextpeerPushDataToOtherPlayers
	.type	s3eNextpeerPushDataToOtherPlayers, %function
s3eNextpeerPushDataToOtherPlayers:
.LFB11:
	.loc 1 72 0
	@ args = 0, pretend = 0, frame = 8
	@ frame_needed = 0, uses_anonymous_args = 0
	str	lr, [sp, #-4]!
.LCFI14:
	sub	sp, sp, #12
.LCFI15:
	str	r0, [sp, #4]
	str	r1, [sp, #0]
	.loc 1 73 0
	ldr	r0, [sp, #4]
	ldr	r1, [sp, #0]
	bl	_Z42s3eNextpeerPushDataToOtherPlayers_platformPKvj(PLT)
	.loc 1 74 0
	add	sp, sp, #12
	ldmfd	sp!, {pc}
.LFE11:
	.size	s3eNextpeerPushDataToOtherPlayers, .-s3eNextpeerPushDataToOtherPlayers
	.section	.text.s3eNextpeerPushNotificationToOtherPlayers,"ax",%progbits
	.align	2
	.global	s3eNextpeerPushNotificationToOtherPlayers
	.hidden	s3eNextpeerPushNotificationToOtherPlayers
	.type	s3eNextpeerPushNotificationToOtherPlayers, %function
s3eNextpeerPushNotificationToOtherPlayers:
.LFB12:
	.loc 1 77 0
	@ args = 0, pretend = 0, frame = 8
	@ frame_needed = 0, uses_anonymous_args = 0
	str	lr, [sp, #-4]!
.LCFI16:
	sub	sp, sp, #12
.LCFI17:
	str	r0, [sp, #4]
	.loc 1 78 0
	ldr	r0, [sp, #4]
	bl	_Z50s3eNextpeerPushNotificationToOtherPlayers_platformPKc(PLT)
	.loc 1 79 0
	add	sp, sp, #12
	ldmfd	sp!, {pc}
.LFE12:
	.size	s3eNextpeerPushNotificationToOtherPlayers, .-s3eNextpeerPushNotificationToOtherPlayers
	.section	.text.s3eNextpeerHandleOpenURL,"ax",%progbits
	.align	2
	.global	s3eNextpeerHandleOpenURL
	.hidden	s3eNextpeerHandleOpenURL
	.type	s3eNextpeerHandleOpenURL, %function
s3eNextpeerHandleOpenURL:
.LFB13:
	.loc 1 82 0
	@ args = 0, pretend = 0, frame = 8
	@ frame_needed = 0, uses_anonymous_args = 0
	str	lr, [sp, #-4]!
.LCFI18:
	sub	sp, sp, #12
.LCFI19:
	str	r0, [sp, #4]
	.loc 1 83 0
	ldr	r0, [sp, #4]
	bl	_Z33s3eNextpeerHandleOpenURL_platformPv(PLT)
	.loc 1 84 0
	add	sp, sp, #12
	ldmfd	sp!, {pc}
.LFE13:
	.size	s3eNextpeerHandleOpenURL, .-s3eNextpeerHandleOpenURL
	.section	.text.s3eNextpeerRegisterOpenURLCallback,"ax",%progbits
	.align	2
	.global	s3eNextpeerRegisterOpenURLCallback
	.hidden	s3eNextpeerRegisterOpenURLCallback
	.type	s3eNextpeerRegisterOpenURLCallback, %function
s3eNextpeerRegisterOpenURLCallback:
.LFB14:
	.loc 1 87 0
	@ args = 0, pretend = 0, frame = 0
	@ frame_needed = 0, uses_anonymous_args = 0
	stmfd	sp!, {r4, lr}
.LCFI20:
	.loc 1 88 0
	bl	_Z43s3eNextpeerRegisterOpenURLCallback_platformv(PLT)
	.loc 1 89 0
	ldmfd	sp!, {r4, pc}
.LFE14:
	.size	s3eNextpeerRegisterOpenURLCallback, .-s3eNextpeerRegisterOpenURLCallback
	.section	.text.s3eNextpeerSetUnifiedVirtualCurrencySupport,"ax",%progbits
	.align	2
	.global	s3eNextpeerSetUnifiedVirtualCurrencySupport
	.hidden	s3eNextpeerSetUnifiedVirtualCurrencySupport
	.type	s3eNextpeerSetUnifiedVirtualCurrencySupport, %function
s3eNextpeerSetUnifiedVirtualCurrencySupport:
.LFB15:
	.loc 1 92 0
	@ args = 0, pretend = 0, frame = 8
	@ frame_needed = 0, uses_anonymous_args = 0
	str	lr, [sp, #-4]!
.LCFI21:
	sub	sp, sp, #12
.LCFI22:
	mov	r3, r0
	strb	r3, [sp, #7]
	.loc 1 93 0
	ldrb	r3, [sp, #7]	@ zero_extendqisi2
	mov	r0, r3
	bl	_Z52s3eNextpeerSetUnifiedVirtualCurrencySupport_platformh(PLT)
	.loc 1 94 0
	add	sp, sp, #12
	ldmfd	sp!, {pc}
.LFE15:
	.size	s3eNextpeerSetUnifiedVirtualCurrencySupport, .-s3eNextpeerSetUnifiedVirtualCurrencySupport
	.section	.text.s3eNextpeerOpenFeed,"ax",%progbits
	.align	2
	.global	s3eNextpeerOpenFeed
	.hidden	s3eNextpeerOpenFeed
	.type	s3eNextpeerOpenFeed, %function
s3eNextpeerOpenFeed:
.LFB16:
	.loc 1 97 0
	@ args = 0, pretend = 0, frame = 0
	@ frame_needed = 0, uses_anonymous_args = 0
	stmfd	sp!, {r4, lr}
.LCFI23:
	.loc 1 98 0
	bl	_Z28s3eNextpeerOpenFeed_platformv(PLT)
	.loc 1 99 0
	ldmfd	sp!, {r4, pc}
.LFE16:
	.size	s3eNextpeerOpenFeed, .-s3eNextpeerOpenFeed
	.section	.text.s3eNextpeerRegisterCallback,"ax",%progbits
	.align	2
	.global	s3eNextpeerRegisterCallback
	.hidden	s3eNextpeerRegisterCallback
	.type	s3eNextpeerRegisterCallback, %function
s3eNextpeerRegisterCallback:
.LFB17:
	.loc 1 102 0
	@ args = 0, pretend = 0, frame = 16
	@ frame_needed = 0, uses_anonymous_args = 0
	str	lr, [sp, #-4]!
.LCFI24:
	sub	sp, sp, #20
.LCFI25:
	str	r0, [sp, #12]
	str	r1, [sp, #8]
	str	r2, [sp, #4]
	.loc 1 103 0
	ldr	r0, [sp, #12]
	ldr	r1, [sp, #8]
	ldr	r2, [sp, #4]
	bl	_Z36s3eNextpeerRegisterCallback_platform18s3eNextperCallbackPFiPvS0_ES0_(PLT)
	mov	r3, r0
	.loc 1 104 0
	mov	r0, r3
	add	sp, sp, #20
	ldmfd	sp!, {pc}
.LFE17:
	.size	s3eNextpeerRegisterCallback, .-s3eNextpeerRegisterCallback
	.section	.text.s3eNextpeerUnRegisterCallback,"ax",%progbits
	.align	2
	.global	s3eNextpeerUnRegisterCallback
	.hidden	s3eNextpeerUnRegisterCallback
	.type	s3eNextpeerUnRegisterCallback, %function
s3eNextpeerUnRegisterCallback:
.LFB18:
	.loc 1 107 0
	@ args = 0, pretend = 0, frame = 8
	@ frame_needed = 0, uses_anonymous_args = 0
	str	lr, [sp, #-4]!
.LCFI26:
	sub	sp, sp, #12
.LCFI27:
	str	r0, [sp, #4]
	str	r1, [sp, #0]
	.loc 1 108 0
	ldr	r0, [sp, #4]
	ldr	r1, [sp, #0]
	bl	_Z38s3eNextpeerUnRegisterCallback_platform18s3eNextperCallbackPFiPvS0_E(PLT)
	mov	r3, r0
	.loc 1 109 0
	mov	r0, r3
	add	sp, sp, #12
	ldmfd	sp!, {pc}
.LFE18:
	.size	s3eNextpeerUnRegisterCallback, .-s3eNextpeerUnRegisterCallback
	.section	.debug_frame,"",%progbits
.Lframe0:
	.4byte	.LECIE0-.LSCIE0
.LSCIE0:
	.4byte	0xffffffff
	.byte	0x1
	.ascii	"\000"
	.uleb128 0x1
	.sleb128 -4
	.byte	0xe
	.byte	0xc
	.uleb128 0xd
	.uleb128 0x0
	.align	2
.LECIE0:
.LSFDE0:
	.4byte	.LEFDE0-.LASFDE0
.LASFDE0:
	.4byte	.Lframe0
	.4byte	.LFB0
	.4byte	.LFE0-.LFB0
	.byte	0x4
	.4byte	.LCFI0-.LFB0
	.byte	0xe
	.uleb128 0x8
	.byte	0x11
	.uleb128 0xe
	.sleb128 1
	.byte	0x11
	.uleb128 0x4
	.sleb128 2
	.align	2
.LEFDE0:
.LSFDE2:
	.4byte	.LEFDE2-.LASFDE2
.LASFDE2:
	.4byte	.Lframe0
	.4byte	.LFB1
	.4byte	.LFE1-.LFB1
	.byte	0x4
	.4byte	.LCFI1-.LFB1
	.byte	0xe
	.uleb128 0x8
	.byte	0x11
	.uleb128 0xe
	.sleb128 1
	.byte	0x11
	.uleb128 0x4
	.sleb128 2
	.align	2
.LEFDE2:
.LSFDE4:
	.4byte	.LEFDE4-.LASFDE4
.LASFDE4:
	.4byte	.Lframe0
	.4byte	.LFB2
	.4byte	.LFE2-.LFB2
	.byte	0x4
	.4byte	.LCFI2-.LFB2
	.byte	0xe
	.uleb128 0x4
	.byte	0x4
	.4byte	.LCFI3-.LCFI2
	.byte	0xe
	.uleb128 0x10
	.byte	0x11
	.uleb128 0xe
	.sleb128 1
	.align	2
.LEFDE4:
.LSFDE6:
	.4byte	.LEFDE6-.LASFDE6
.LASFDE6:
	.4byte	.Lframe0
	.4byte	.LFB3
	.4byte	.LFE3-.LFB3
	.byte	0x4
	.4byte	.LCFI4-.LFB3
	.byte	0xe
	.uleb128 0x8
	.byte	0x11
	.uleb128 0xe
	.sleb128 1
	.byte	0x11
	.uleb128 0x4
	.sleb128 2
	.align	2
.LEFDE6:
.LSFDE8:
	.4byte	.LEFDE8-.LASFDE8
.LASFDE8:
	.4byte	.Lframe0
	.4byte	.LFB4
	.4byte	.LFE4-.LFB4
	.byte	0x4
	.4byte	.LCFI5-.LFB4
	.byte	0xe
	.uleb128 0x4
	.byte	0x4
	.4byte	.LCFI6-.LCFI5
	.byte	0xe
	.uleb128 0x10
	.byte	0x11
	.uleb128 0xe
	.sleb128 1
	.align	2
.LEFDE8:
.LSFDE10:
	.4byte	.LEFDE10-.LASFDE10
.LASFDE10:
	.4byte	.Lframe0
	.4byte	.LFB5
	.4byte	.LFE5-.LFB5
	.byte	0x4
	.4byte	.LCFI7-.LFB5
	.byte	0xe
	.uleb128 0x8
	.byte	0x11
	.uleb128 0xe
	.sleb128 1
	.byte	0x11
	.uleb128 0x4
	.sleb128 2
	.align	2
.LEFDE10:
.LSFDE12:
	.4byte	.LEFDE12-.LASFDE12
.LASFDE12:
	.4byte	.Lframe0
	.4byte	.LFB6
	.4byte	.LFE6-.LFB6
	.byte	0x4
	.4byte	.LCFI8-.LFB6
	.byte	0xe
	.uleb128 0x8
	.byte	0x11
	.uleb128 0xe
	.sleb128 1
	.byte	0x11
	.uleb128 0x4
	.sleb128 2
	.align	2
.LEFDE12:
.LSFDE14:
	.4byte	.LEFDE14-.LASFDE14
.LASFDE14:
	.4byte	.Lframe0
	.4byte	.LFB7
	.4byte	.LFE7-.LFB7
	.byte	0x4
	.4byte	.LCFI9-.LFB7
	.byte	0xe
	.uleb128 0x4
	.byte	0x4
	.4byte	.LCFI10-.LCFI9
	.byte	0xe
	.uleb128 0x10
	.byte	0x11
	.uleb128 0xe
	.sleb128 1
	.align	2
.LEFDE14:
.LSFDE16:
	.4byte	.LEFDE16-.LASFDE16
.LASFDE16:
	.4byte	.Lframe0
	.4byte	.LFB8
	.4byte	.LFE8-.LFB8
	.byte	0x4
	.4byte	.LCFI11-.LFB8
	.byte	0xe
	.uleb128 0x8
	.byte	0x11
	.uleb128 0xe
	.sleb128 1
	.byte	0x11
	.uleb128 0x4
	.sleb128 2
	.align	2
.LEFDE16:
.LSFDE18:
	.4byte	.LEFDE18-.LASFDE18
.LASFDE18:
	.4byte	.Lframe0
	.4byte	.LFB9
	.4byte	.LFE9-.LFB9
	.byte	0x4
	.4byte	.LCFI12-.LFB9
	.byte	0xe
	.uleb128 0x8
	.byte	0x11
	.uleb128 0xe
	.sleb128 1
	.byte	0x11
	.uleb128 0x4
	.sleb128 2
	.align	2
.LEFDE18:
.LSFDE20:
	.4byte	.LEFDE20-.LASFDE20
.LASFDE20:
	.4byte	.Lframe0
	.4byte	.LFB10
	.4byte	.LFE10-.LFB10
	.byte	0x4
	.4byte	.LCFI13-.LFB10
	.byte	0xe
	.uleb128 0x8
	.byte	0x11
	.uleb128 0xe
	.sleb128 1
	.byte	0x11
	.uleb128 0x4
	.sleb128 2
	.align	2
.LEFDE20:
.LSFDE22:
	.4byte	.LEFDE22-.LASFDE22
.LASFDE22:
	.4byte	.Lframe0
	.4byte	.LFB11
	.4byte	.LFE11-.LFB11
	.byte	0x4
	.4byte	.LCFI14-.LFB11
	.byte	0xe
	.uleb128 0x4
	.byte	0x4
	.4byte	.LCFI15-.LCFI14
	.byte	0xe
	.uleb128 0x10
	.byte	0x11
	.uleb128 0xe
	.sleb128 1
	.align	2
.LEFDE22:
.LSFDE24:
	.4byte	.LEFDE24-.LASFDE24
.LASFDE24:
	.4byte	.Lframe0
	.4byte	.LFB12
	.4byte	.LFE12-.LFB12
	.byte	0x4
	.4byte	.LCFI16-.LFB12
	.byte	0xe
	.uleb128 0x4
	.byte	0x4
	.4byte	.LCFI17-.LCFI16
	.byte	0xe
	.uleb128 0x10
	.byte	0x11
	.uleb128 0xe
	.sleb128 1
	.align	2
.LEFDE24:
.LSFDE26:
	.4byte	.LEFDE26-.LASFDE26
.LASFDE26:
	.4byte	.Lframe0
	.4byte	.LFB13
	.4byte	.LFE13-.LFB13
	.byte	0x4
	.4byte	.LCFI18-.LFB13
	.byte	0xe
	.uleb128 0x4
	.byte	0x4
	.4byte	.LCFI19-.LCFI18
	.byte	0xe
	.uleb128 0x10
	.byte	0x11
	.uleb128 0xe
	.sleb128 1
	.align	2
.LEFDE26:
.LSFDE28:
	.4byte	.LEFDE28-.LASFDE28
.LASFDE28:
	.4byte	.Lframe0
	.4byte	.LFB14
	.4byte	.LFE14-.LFB14
	.byte	0x4
	.4byte	.LCFI20-.LFB14
	.byte	0xe
	.uleb128 0x8
	.byte	0x11
	.uleb128 0xe
	.sleb128 1
	.byte	0x11
	.uleb128 0x4
	.sleb128 2
	.align	2
.LEFDE28:
.LSFDE30:
	.4byte	.LEFDE30-.LASFDE30
.LASFDE30:
	.4byte	.Lframe0
	.4byte	.LFB15
	.4byte	.LFE15-.LFB15
	.byte	0x4
	.4byte	.LCFI21-.LFB15
	.byte	0xe
	.uleb128 0x4
	.byte	0x4
	.4byte	.LCFI22-.LCFI21
	.byte	0xe
	.uleb128 0x10
	.byte	0x11
	.uleb128 0xe
	.sleb128 1
	.align	2
.LEFDE30:
.LSFDE32:
	.4byte	.LEFDE32-.LASFDE32
.LASFDE32:
	.4byte	.Lframe0
	.4byte	.LFB16
	.4byte	.LFE16-.LFB16
	.byte	0x4
	.4byte	.LCFI23-.LFB16
	.byte	0xe
	.uleb128 0x8
	.byte	0x11
	.uleb128 0xe
	.sleb128 1
	.byte	0x11
	.uleb128 0x4
	.sleb128 2
	.align	2
.LEFDE32:
.LSFDE34:
	.4byte	.LEFDE34-.LASFDE34
.LASFDE34:
	.4byte	.Lframe0
	.4byte	.LFB17
	.4byte	.LFE17-.LFB17
	.byte	0x4
	.4byte	.LCFI24-.LFB17
	.byte	0xe
	.uleb128 0x4
	.byte	0x4
	.4byte	.LCFI25-.LCFI24
	.byte	0xe
	.uleb128 0x18
	.byte	0x11
	.uleb128 0xe
	.sleb128 1
	.align	2
.LEFDE34:
.LSFDE36:
	.4byte	.LEFDE36-.LASFDE36
.LASFDE36:
	.4byte	.Lframe0
	.4byte	.LFB18
	.4byte	.LFE18-.LFB18
	.byte	0x4
	.4byte	.LCFI26-.LFB18
	.byte	0xe
	.uleb128 0x4
	.byte	0x4
	.4byte	.LCFI27-.LCFI26
	.byte	0xe
	.uleb128 0x10
	.byte	0x11
	.uleb128 0xe
	.sleb128 1
	.align	2
.LEFDE36:
	.text
.Letext0:
	.section	.note.GNU-stack,"",%progbits
