	.arch armv5te
	.eabi_attribute 27, 3
	.fpu vfp
	.eabi_attribute 20, 1
	.eabi_attribute 21, 1
	.eabi_attribute 23, 3
	.eabi_attribute 24, 1
	.eabi_attribute 25, 1
	.eabi_attribute 26, 2
	.eabi_attribute 30, 6
	.eabi_attribute 18, 4
	.file	"s3eNextpeer_platform.cpp"
	.text
.Ltext0:
	.section	.text._ZN7_JNIEnv9FindClassEPKc,"axG",%progbits,_ZN7_JNIEnv9FindClassEPKc,comdat
	.align	2
	.weak	_ZN7_JNIEnv9FindClassEPKc
	.hidden	_ZN7_JNIEnv9FindClassEPKc
	.type	_ZN7_JNIEnv9FindClassEPKc, %function
_ZN7_JNIEnv9FindClassEPKc:
.LFB2:
	.file 1 "../../../../s3e/edk/h/jni.h"
	.loc 1 502 0
	@ args = 0, pretend = 0, frame = 8
	@ frame_needed = 0, uses_anonymous_args = 0
	str	lr, [sp, #-4]!
.LCFI0:
	sub	sp, sp, #12
.LCFI1:
	str	r0, [sp, #4]
	str	r1, [sp, #0]
	.loc 1 503 0
	ldr	r3, [sp, #4]
	ldr	r3, [r3, #0]
	ldr	r3, [r3, #24]
	ldr	r0, [sp, #4]
	ldr	r1, [sp, #0]
	blx	r3
	mov	r3, r0
	mov	r0, r3
	add	sp, sp, #12
	ldmfd	sp!, {pc}
.LFE2:
	.size	_ZN7_JNIEnv9FindClassEPKc, .-_ZN7_JNIEnv9FindClassEPKc
	.section	.text._ZN7_JNIEnv17ExceptionOccurredEv,"axG",%progbits,_ZN7_JNIEnv17ExceptionOccurredEv,comdat
	.align	2
	.weak	_ZN7_JNIEnv17ExceptionOccurredEv
	.hidden	_ZN7_JNIEnv17ExceptionOccurredEv
	.type	_ZN7_JNIEnv17ExceptionOccurredEv, %function
_ZN7_JNIEnv17ExceptionOccurredEv:
.LFB11:
	.loc 1 529 0
	@ args = 0, pretend = 0, frame = 8
	@ frame_needed = 0, uses_anonymous_args = 0
	str	lr, [sp, #-4]!
.LCFI2:
	sub	sp, sp, #12
.LCFI3:
	str	r0, [sp, #4]
	.loc 1 530 0
	ldr	r3, [sp, #4]
	ldr	r3, [r3, #0]
	ldr	r3, [r3, #60]
	ldr	r0, [sp, #4]
	blx	r3
	mov	r3, r0
	mov	r0, r3
	add	sp, sp, #12
	ldmfd	sp!, {pc}
.LFE11:
	.size	_ZN7_JNIEnv17ExceptionOccurredEv, .-_ZN7_JNIEnv17ExceptionOccurredEv
	.section	.text._ZN7_JNIEnv17ExceptionDescribeEv,"axG",%progbits,_ZN7_JNIEnv17ExceptionDescribeEv,comdat
	.align	2
	.weak	_ZN7_JNIEnv17ExceptionDescribeEv
	.hidden	_ZN7_JNIEnv17ExceptionDescribeEv
	.type	_ZN7_JNIEnv17ExceptionDescribeEv, %function
_ZN7_JNIEnv17ExceptionDescribeEv:
.LFB12:
	.loc 1 532 0
	@ args = 0, pretend = 0, frame = 8
	@ frame_needed = 0, uses_anonymous_args = 0
	str	lr, [sp, #-4]!
.LCFI4:
	sub	sp, sp, #12
.LCFI5:
	str	r0, [sp, #4]
	.loc 1 533 0
	ldr	r3, [sp, #4]
	ldr	r3, [r3, #0]
	ldr	r3, [r3, #64]
	ldr	r0, [sp, #4]
	blx	r3
	add	sp, sp, #12
	ldmfd	sp!, {pc}
.LFE12:
	.size	_ZN7_JNIEnv17ExceptionDescribeEv, .-_ZN7_JNIEnv17ExceptionDescribeEv
	.section	.text._ZN7_JNIEnv14ExceptionClearEv,"axG",%progbits,_ZN7_JNIEnv14ExceptionClearEv,comdat
	.align	2
	.weak	_ZN7_JNIEnv14ExceptionClearEv
	.hidden	_ZN7_JNIEnv14ExceptionClearEv
	.type	_ZN7_JNIEnv14ExceptionClearEv, %function
_ZN7_JNIEnv14ExceptionClearEv:
.LFB13:
	.loc 1 535 0
	@ args = 0, pretend = 0, frame = 8
	@ frame_needed = 0, uses_anonymous_args = 0
	str	lr, [sp, #-4]!
.LCFI6:
	sub	sp, sp, #12
.LCFI7:
	str	r0, [sp, #4]
	.loc 1 536 0
	ldr	r3, [sp, #4]
	ldr	r3, [r3, #0]
	ldr	r3, [r3, #68]
	ldr	r0, [sp, #4]
	blx	r3
	add	sp, sp, #12
	ldmfd	sp!, {pc}
.LFE13:
	.size	_ZN7_JNIEnv14ExceptionClearEv, .-_ZN7_JNIEnv14ExceptionClearEv
	.section	.text._ZN7_JNIEnv12NewGlobalRefEP8_jobject,"axG",%progbits,_ZN7_JNIEnv12NewGlobalRefEP8_jobject,comdat
	.align	2
	.weak	_ZN7_JNIEnv12NewGlobalRefEP8_jobject
	.hidden	_ZN7_JNIEnv12NewGlobalRefEP8_jobject
	.type	_ZN7_JNIEnv12NewGlobalRefEP8_jobject, %function
_ZN7_JNIEnv12NewGlobalRefEP8_jobject:
.LFB17:
	.loc 1 547 0
	@ args = 0, pretend = 0, frame = 8
	@ frame_needed = 0, uses_anonymous_args = 0
	str	lr, [sp, #-4]!
.LCFI8:
	sub	sp, sp, #12
.LCFI9:
	str	r0, [sp, #4]
	str	r1, [sp, #0]
	.loc 1 548 0
	ldr	r3, [sp, #4]
	ldr	r3, [r3, #0]
	ldr	r3, [r3, #84]
	ldr	r0, [sp, #4]
	ldr	r1, [sp, #0]
	blx	r3
	mov	r3, r0
	mov	r0, r3
	add	sp, sp, #12
	ldmfd	sp!, {pc}
.LFE17:
	.size	_ZN7_JNIEnv12NewGlobalRefEP8_jobject, .-_ZN7_JNIEnv12NewGlobalRefEP8_jobject
	.section	.text._ZN7_JNIEnv15DeleteGlobalRefEP8_jobject,"axG",%progbits,_ZN7_JNIEnv15DeleteGlobalRefEP8_jobject,comdat
	.align	2
	.weak	_ZN7_JNIEnv15DeleteGlobalRefEP8_jobject
	.hidden	_ZN7_JNIEnv15DeleteGlobalRefEP8_jobject
	.type	_ZN7_JNIEnv15DeleteGlobalRefEP8_jobject, %function
_ZN7_JNIEnv15DeleteGlobalRefEP8_jobject:
.LFB18:
	.loc 1 550 0
	@ args = 0, pretend = 0, frame = 8
	@ frame_needed = 0, uses_anonymous_args = 0
	str	lr, [sp, #-4]!
.LCFI10:
	sub	sp, sp, #12
.LCFI11:
	str	r0, [sp, #4]
	str	r1, [sp, #0]
	.loc 1 551 0
	ldr	r3, [sp, #4]
	ldr	r3, [r3, #0]
	ldr	r3, [r3, #88]
	ldr	r0, [sp, #4]
	ldr	r1, [sp, #0]
	blx	r3
	add	sp, sp, #12
	ldmfd	sp!, {pc}
.LFE18:
	.size	_ZN7_JNIEnv15DeleteGlobalRefEP8_jobject, .-_ZN7_JNIEnv15DeleteGlobalRefEP8_jobject
	.section	.text._ZN7_JNIEnv14DeleteLocalRefEP8_jobject,"axG",%progbits,_ZN7_JNIEnv14DeleteLocalRefEP8_jobject,comdat
	.align	2
	.weak	_ZN7_JNIEnv14DeleteLocalRefEP8_jobject
	.hidden	_ZN7_JNIEnv14DeleteLocalRefEP8_jobject
	.type	_ZN7_JNIEnv14DeleteLocalRefEP8_jobject, %function
_ZN7_JNIEnv14DeleteLocalRefEP8_jobject:
.LFB19:
	.loc 1 553 0
	@ args = 0, pretend = 0, frame = 8
	@ frame_needed = 0, uses_anonymous_args = 0
	str	lr, [sp, #-4]!
.LCFI12:
	sub	sp, sp, #12
.LCFI13:
	str	r0, [sp, #4]
	str	r1, [sp, #0]
	.loc 1 554 0
	ldr	r3, [sp, #4]
	ldr	r3, [r3, #0]
	ldr	r3, [r3, #92]
	ldr	r0, [sp, #4]
	ldr	r1, [sp, #0]
	blx	r3
	add	sp, sp, #12
	ldmfd	sp!, {pc}
.LFE19:
	.size	_ZN7_JNIEnv14DeleteLocalRefEP8_jobject, .-_ZN7_JNIEnv14DeleteLocalRefEP8_jobject
	.section	.text._ZN7_JNIEnv9NewObjectEP7_jclassP10_jmethodIDz,"axG",%progbits,_ZN7_JNIEnv9NewObjectEP7_jclassP10_jmethodIDz,comdat
	.align	2
	.weak	_ZN7_JNIEnv9NewObjectEP7_jclassP10_jmethodIDz
	.hidden	_ZN7_JNIEnv9NewObjectEP7_jclassP10_jmethodIDz
	.type	_ZN7_JNIEnv9NewObjectEP7_jclassP10_jmethodIDz, %function
_ZN7_JNIEnv9NewObjectEP7_jclassP10_jmethodIDz:
.LFB24:
	.loc 1 568 0
	@ args = 4, pretend = 8, frame = 16
	@ frame_needed = 0, uses_anonymous_args = 1
	stmfd	sp!, {r2, r3}
.LCFI14:
	str	lr, [sp, #-4]!
.LCFI15:
	sub	sp, sp, #20
.LCFI16:
	str	r0, [sp, #4]
	str	r1, [sp, #0]
.LBB2:
	.loc 1 571 0
	add	r3, sp, #28
	str	r3, [sp, #8]
	.loc 1 572 0
	ldr	r3, [sp, #4]
	ldr	r3, [r3, #0]
	ldr	ip, [r3, #116]
	ldr	r0, [sp, #4]
	ldr	r1, [sp, #0]
	ldr	r2, [sp, #24]
	ldr	r3, [sp, #8]
	blx	ip
	mov	r3, r0
	str	r3, [sp, #12]
	.loc 1 574 0
	ldr	r3, [sp, #12]
.LBE2:
	.loc 1 575 0
	mov	r0, r3
	add	sp, sp, #20
	ldr	lr, [sp], #4
	add	sp, sp, #8
	bx	lr
.LFE24:
	.size	_ZN7_JNIEnv9NewObjectEP7_jclassP10_jmethodIDz, .-_ZN7_JNIEnv9NewObjectEP7_jclassP10_jmethodIDz
	.section	.text._ZN7_JNIEnv11GetMethodIDEP7_jclassPKcS3_,"axG",%progbits,_ZN7_JNIEnv11GetMethodIDEP7_jclassPKcS3_,comdat
	.align	2
	.weak	_ZN7_JNIEnv11GetMethodIDEP7_jclassPKcS3_
	.hidden	_ZN7_JNIEnv11GetMethodIDEP7_jclassPKcS3_
	.type	_ZN7_JNIEnv11GetMethodIDEP7_jclassPKcS3_, %function
_ZN7_JNIEnv11GetMethodIDEP7_jclassPKcS3_:
.LFB29:
	.loc 1 589 0
	@ args = 0, pretend = 0, frame = 16
	@ frame_needed = 0, uses_anonymous_args = 0
	str	lr, [sp, #-4]!
.LCFI17:
	sub	sp, sp, #20
.LCFI18:
	str	r0, [sp, #12]
	str	r1, [sp, #8]
	str	r2, [sp, #4]
	str	r3, [sp, #0]
	.loc 1 590 0
	ldr	r3, [sp, #12]
	ldr	r3, [r3, #0]
	ldr	ip, [r3, #132]
	ldr	r0, [sp, #12]
	ldr	r1, [sp, #8]
	ldr	r2, [sp, #4]
	ldr	r3, [sp, #0]
	blx	ip
	mov	r3, r0
	mov	r0, r3
	add	sp, sp, #20
	ldmfd	sp!, {pc}
.LFE29:
	.size	_ZN7_JNIEnv11GetMethodIDEP7_jclassPKcS3_, .-_ZN7_JNIEnv11GetMethodIDEP7_jclassPKcS3_
	.section	.text._ZN7_JNIEnv17CallBooleanMethodEP8_jobjectP10_jmethodIDz,"axG",%progbits,_ZN7_JNIEnv17CallBooleanMethodEP8_jobjectP10_jmethodIDz,comdat
	.align	2
	.weak	_ZN7_JNIEnv17CallBooleanMethodEP8_jobjectP10_jmethodIDz
	.hidden	_ZN7_JNIEnv17CallBooleanMethodEP8_jobjectP10_jmethodIDz
	.type	_ZN7_JNIEnv17CallBooleanMethodEP8_jobjectP10_jmethodIDz, %function
_ZN7_JNIEnv17CallBooleanMethodEP8_jobjectP10_jmethodIDz:
.LFB33:
	.loc 1 618 0
	@ args = 4, pretend = 8, frame = 16
	@ frame_needed = 0, uses_anonymous_args = 1
	stmfd	sp!, {r2, r3}
.LCFI19:
	str	lr, [sp, #-4]!
.LCFI20:
	sub	sp, sp, #20
.LCFI21:
	str	r0, [sp, #4]
	str	r1, [sp, #0]
.LBB3:
	.loc 1 618 0
	add	r3, sp, #28
	str	r3, [sp, #8]
	ldr	r3, [sp, #4]
	ldr	r3, [r3, #0]
	ldr	ip, [r3, #152]
	ldr	r0, [sp, #4]
	ldr	r1, [sp, #0]
	ldr	r2, [sp, #24]
	ldr	r3, [sp, #8]
	blx	ip
	mov	r3, r0
	strb	r3, [sp, #15]
	ldrb	r3, [sp, #15]	@ zero_extendqisi2
.LBE3:
	mov	r0, r3
	add	sp, sp, #20
	ldr	lr, [sp], #4
	add	sp, sp, #8
	bx	lr
.LFE33:
	.size	_ZN7_JNIEnv17CallBooleanMethodEP8_jobjectP10_jmethodIDz, .-_ZN7_JNIEnv17CallBooleanMethodEP8_jobjectP10_jmethodIDz
	.section	.text._ZN7_JNIEnv13CallIntMethodEP8_jobjectP10_jmethodIDz,"axG",%progbits,_ZN7_JNIEnv13CallIntMethodEP8_jobjectP10_jmethodIDz,comdat
	.align	2
	.weak	_ZN7_JNIEnv13CallIntMethodEP8_jobjectP10_jmethodIDz
	.hidden	_ZN7_JNIEnv13CallIntMethodEP8_jobjectP10_jmethodIDz
	.type	_ZN7_JNIEnv13CallIntMethodEP8_jobjectP10_jmethodIDz, %function
_ZN7_JNIEnv13CallIntMethodEP8_jobjectP10_jmethodIDz:
.LFB45:
	.loc 1 622 0
	@ args = 4, pretend = 8, frame = 16
	@ frame_needed = 0, uses_anonymous_args = 1
	stmfd	sp!, {r2, r3}
.LCFI22:
	str	lr, [sp, #-4]!
.LCFI23:
	sub	sp, sp, #20
.LCFI24:
	str	r0, [sp, #4]
	str	r1, [sp, #0]
.LBB4:
	.loc 1 622 0
	add	r3, sp, #28
	str	r3, [sp, #8]
	ldr	r3, [sp, #4]
	ldr	r3, [r3, #0]
	ldr	ip, [r3, #200]
	ldr	r0, [sp, #4]
	ldr	r1, [sp, #0]
	ldr	r2, [sp, #24]
	ldr	r3, [sp, #8]
	blx	ip
	mov	r3, r0
	str	r3, [sp, #12]
	ldr	r3, [sp, #12]
.LBE4:
	mov	r0, r3
	add	sp, sp, #20
	ldr	lr, [sp], #4
	add	sp, sp, #8
	bx	lr
.LFE45:
	.size	_ZN7_JNIEnv13CallIntMethodEP8_jobjectP10_jmethodIDz, .-_ZN7_JNIEnv13CallIntMethodEP8_jobjectP10_jmethodIDz
	.section	.text._ZN7_JNIEnv14CallVoidMethodEP8_jobjectP10_jmethodIDz,"axG",%progbits,_ZN7_JNIEnv14CallVoidMethodEP8_jobjectP10_jmethodIDz,comdat
	.align	2
	.weak	_ZN7_JNIEnv14CallVoidMethodEP8_jobjectP10_jmethodIDz
	.hidden	_ZN7_JNIEnv14CallVoidMethodEP8_jobjectP10_jmethodIDz
	.type	_ZN7_JNIEnv14CallVoidMethodEP8_jobjectP10_jmethodIDz, %function
_ZN7_JNIEnv14CallVoidMethodEP8_jobjectP10_jmethodIDz:
.LFB57:
	.loc 1 627 0
	@ args = 4, pretend = 8, frame = 16
	@ frame_needed = 0, uses_anonymous_args = 1
	stmfd	sp!, {r2, r3}
.LCFI25:
	str	lr, [sp, #-4]!
.LCFI26:
	sub	sp, sp, #20
.LCFI27:
	str	r0, [sp, #4]
	str	r1, [sp, #0]
.LBB5:
	.loc 1 630 0
	add	r3, sp, #28
	str	r3, [sp, #12]
	.loc 1 631 0
	ldr	r3, [sp, #4]
	ldr	r3, [r3, #0]
	ldr	ip, [r3, #248]
	ldr	r0, [sp, #4]
	ldr	r1, [sp, #0]
	ldr	r2, [sp, #24]
	ldr	r3, [sp, #12]
	blx	ip
.LBE5:
	.loc 1 633 0
	add	sp, sp, #20
	ldr	lr, [sp], #4
	add	sp, sp, #8
	bx	lr
.LFE57:
	.size	_ZN7_JNIEnv14CallVoidMethodEP8_jobjectP10_jmethodIDz, .-_ZN7_JNIEnv14CallVoidMethodEP8_jobjectP10_jmethodIDz
	.section	.text._ZN7_JNIEnv12NewStringUTFEPKc,"axG",%progbits,_ZN7_JNIEnv12NewStringUTFEPKc,comdat
	.align	2
	.weak	_ZN7_JNIEnv12NewStringUTFEPKc
	.hidden	_ZN7_JNIEnv12NewStringUTFEPKc
	.type	_ZN7_JNIEnv12NewStringUTFEPKc, %function
_ZN7_JNIEnv12NewStringUTFEPKc:
.LFB163:
	.loc 1 839 0
	@ args = 0, pretend = 0, frame = 8
	@ frame_needed = 0, uses_anonymous_args = 0
	str	lr, [sp, #-4]!
.LCFI28:
	sub	sp, sp, #12
.LCFI29:
	str	r0, [sp, #4]
	str	r1, [sp, #0]
	.loc 1 840 0
	ldr	r3, [sp, #4]
	ldr	r3, [r3, #0]
	ldr	r3, [r3, #668]
	ldr	r0, [sp, #4]
	ldr	r1, [sp, #0]
	blx	r3
	mov	r3, r0
	mov	r0, r3
	add	sp, sp, #12
	ldmfd	sp!, {pc}
.LFE163:
	.size	_ZN7_JNIEnv12NewStringUTFEPKc, .-_ZN7_JNIEnv12NewStringUTFEPKc
	.section	.text._ZN7_JNIEnv15RegisterNativesEP7_jclassPK15JNINativeMethodi,"axG",%progbits,_ZN7_JNIEnv15RegisterNativesEP7_jclassPK15JNINativeMethodi,comdat
	.align	2
	.weak	_ZN7_JNIEnv15RegisterNativesEP7_jclassPK15JNINativeMethodi
	.hidden	_ZN7_JNIEnv15RegisterNativesEP7_jclassPK15JNINativeMethodi
	.type	_ZN7_JNIEnv15RegisterNativesEP7_jclassPK15JNINativeMethodi, %function
_ZN7_JNIEnv15RegisterNativesEP7_jclassPK15JNINativeMethodi:
.LFB211:
	.loc 1 974 0
	@ args = 0, pretend = 0, frame = 16
	@ frame_needed = 0, uses_anonymous_args = 0
	str	lr, [sp, #-4]!
.LCFI30:
	sub	sp, sp, #20
.LCFI31:
	str	r0, [sp, #12]
	str	r1, [sp, #8]
	str	r2, [sp, #4]
	str	r3, [sp, #0]
	.loc 1 976 0
	ldr	r3, [sp, #12]
	ldr	r3, [r3, #0]
	ldr	ip, [r3, #860]
	ldr	r0, [sp, #12]
	ldr	r1, [sp, #8]
	ldr	r2, [sp, #4]
	ldr	r3, [sp, #0]
	blx	ip
	mov	r3, r0
	mov	r0, r3
	add	sp, sp, #20
	ldmfd	sp!, {pc}
.LFE211:
	.size	_ZN7_JNIEnv15RegisterNativesEP7_jclassPK15JNINativeMethodi, .-_ZN7_JNIEnv15RegisterNativesEP7_jclassPK15JNINativeMethodi
	.section	.text._ZN7_JavaVM6GetEnvEPPvi,"axG",%progbits,_ZN7_JavaVM6GetEnvEPPvi,comdat
	.align	2
	.weak	_ZN7_JavaVM6GetEnvEPPvi
	.hidden	_ZN7_JavaVM6GetEnvEPPvi
	.type	_ZN7_JavaVM6GetEnvEPPvi, %function
_ZN7_JavaVM6GetEnvEPPvi:
.LFB232:
	.loc 1 1061 0
	@ args = 0, pretend = 0, frame = 16
	@ frame_needed = 0, uses_anonymous_args = 0
	str	lr, [sp, #-4]!
.LCFI32:
	sub	sp, sp, #20
.LCFI33:
	str	r0, [sp, #12]
	str	r1, [sp, #8]
	str	r2, [sp, #4]
	.loc 1 1062 0
	ldr	r3, [sp, #12]
	ldr	r3, [r3, #0]
	ldr	r3, [r3, #24]
	ldr	r0, [sp, #12]
	ldr	r1, [sp, #8]
	ldr	r2, [sp, #4]
	blx	r3
	mov	r3, r0
	mov	r0, r3
	add	sp, sp, #20
	ldmfd	sp!, {pc}
.LFE232:
	.size	_ZN7_JavaVM6GetEnvEPPvi, .-_ZN7_JavaVM6GetEnvEPPvi
	.section	.text._ZL15s3eEdkJNIGetEnvv,"ax",%progbits
	.align	2
	.type	_ZL15s3eEdkJNIGetEnvv, %function
_ZL15s3eEdkJNIGetEnvv:
.LFB234:
	.file 2 "../../../../s3e/edk/h/s3eEdk_android.h"
	.loc 2 46 0
	@ args = 0, pretend = 0, frame = 8
	@ frame_needed = 0, uses_anonymous_args = 0
	str	lr, [sp, #-4]!
.LCFI34:
	sub	sp, sp, #12
.LCFI35:
.LBB6:
	.loc 2 47 0
	bl	s3eEdkJNIGetVM(PLT)
	mov	r3, r0
	str	r3, [sp, #4]
	.loc 2 48 0
	mov	r3, #0
	str	r3, [sp, #0]
	.loc 2 49 0
	mov	r3, sp
	ldr	r0, [sp, #4]
	mov	r1, r3
	ldr	r2, .L33
	bl	_ZN7_JavaVM6GetEnvEPPvi(PLT)
	.loc 2 50 0
	ldr	r3, [sp, #0]
.LBE6:
	.loc 2 51 0
	mov	r0, r3
	add	sp, sp, #12
	ldmfd	sp!, {pc}
.L34:
	.align	2
.L33:
	.word	65538
.LFE234:
	.size	_ZL15s3eEdkJNIGetEnvv, .-_ZL15s3eEdkJNIGetEnvv
	.section	.text._ZL27s3eEdkAndroidFindClass_realPKc,"ax",%progbits
	.align	2
	.type	_ZL27s3eEdkAndroidFindClass_realPKc, %function
_ZL27s3eEdkAndroidFindClass_realPKc:
.LFB235:
	.loc 2 58 0
	@ args = 0, pretend = 0, frame = 24
	@ frame_needed = 0, uses_anonymous_args = 0
	str	lr, [sp, #-4]!
.LCFI36:
	sub	sp, sp, #28
.LCFI37:
	str	r0, [sp, #4]
.LBB7:
	.loc 2 59 0
	bl	_ZL15s3eEdkJNIGetEnvv(PLT)
	mov	r3, r0
	str	r3, [sp, #8]
	.loc 2 60 0
	ldr	r0, [sp, #8]
	ldr	r1, [sp, #4]
	bl	_ZN7_JNIEnv9FindClassEPKc(PLT)
	mov	r3, r0
	str	r3, [sp, #12]
	.loc 2 61 0
	ldr	r3, [sp, #12]
	cmp	r3, #0
	bne	.L36
.LBB8:
	.loc 2 63 0
	ldr	r0, [sp, #8]
	bl	_ZN7_JNIEnv17ExceptionOccurredEv(PLT)
	mov	r3, r0
	str	r3, [sp, #20]
	.loc 2 64 0
	ldr	r3, [sp, #20]
	cmp	r3, #0
	beq	.L37
	.loc 2 67 0
	ldr	r0, [sp, #8]
	bl	_ZN7_JNIEnv17ExceptionDescribeEv(PLT)
	.loc 2 69 0
	ldr	r0, [sp, #8]
	bl	_ZN7_JNIEnv14ExceptionClearEv(PLT)
.L37:
	.loc 2 71 0
	mov	r3, #0
	b	.L38
.L36:
.LBE8:
	.loc 2 76 0
	ldr	r3, [sp, #12]
	ldr	r0, [sp, #8]
	mov	r1, r3
	bl	_ZN7_JNIEnv12NewGlobalRefEP8_jobject(PLT)
	mov	r3, r0
	str	r3, [sp, #16]
	.loc 2 77 0
	ldr	r3, [sp, #12]
	ldr	r0, [sp, #8]
	mov	r1, r3
	bl	_ZN7_JNIEnv14DeleteLocalRefEP8_jobject(PLT)
	.loc 2 78 0
	ldr	r3, [sp, #16]
.L38:
.LBE7:
	.loc 2 79 0
	mov	r0, r3
	add	sp, sp, #28
	ldmfd	sp!, {pc}
.LFE235:
	.size	_ZL27s3eEdkAndroidFindClass_realPKc, .-_ZL27s3eEdkAndroidFindClass_realPKc
	.section	.text._ZL22s3eEdkAndroidFindClassPKc,"ax",%progbits
	.align	2
	.type	_ZL22s3eEdkAndroidFindClassPKc, %function
_ZL22s3eEdkAndroidFindClassPKc:
.LFB236:
	.loc 2 94 0
	@ args = 0, pretend = 0, frame = 8
	@ frame_needed = 0, uses_anonymous_args = 0
	str	lr, [sp, #-4]!
.LCFI38:
	sub	sp, sp, #12
.LCFI39:
	str	r0, [sp, #4]
	.loc 2 95 0
	ldr	r3, .L42
.LPIC0:
	add	r3, pc, r3
	mov	r0, r3
	mov	r1, #1
	ldr	r2, [sp, #4]
	bl	s3eEdkThreadRunOnOS(PLT)
	mov	r3, r0
	.loc 2 96 0
	mov	r0, r3
	add	sp, sp, #12
	ldmfd	sp!, {pc}
.L43:
	.align	2
.L42:
	.word	_ZL27s3eEdkAndroidFindClass_realPKc-(.LPIC0+8)
.LFE236:
	.size	_ZL22s3eEdkAndroidFindClassPKc, .-_ZL22s3eEdkAndroidFindClassPKc
	.local	_ZL5g_Obj
	.comm	_ZL5g_Obj,4,4
	.local	_ZL31g_s3eNextpeerInitWithProductKey
	.comm	_ZL31g_s3eNextpeerInitWithProductKey,4,4
	.local	_ZL28g_s3eNextpeerLaunchDashboard
	.comm	_ZL28g_s3eNextpeerLaunchDashboard,4,4
	.local	_ZL46g_s3eNextpeerLaunchDashboardWithCurrencyAmount
	.comm	_ZL46g_s3eNextpeerLaunchDashboardWithCurrencyAmount,4,4
	.local	_ZL29g_s3eNextpeerDismissDashboard
	.comm	_ZL29g_s3eNextpeerDismissDashboard,4,4
	.local	_ZL21g_s3eNextpeerShutDown
	.comm	_ZL21g_s3eNextpeerShutDown,4,4
	.local	_ZL44g_s3eNextpeerReportScoreForCurrentTournament
	.comm	_ZL44g_s3eNextpeerReportScoreForCurrentTournament,4,4
	.local	_ZL36g_s3eNextpeerIsCurrentlyInTournament
	.comm	_ZL36g_s3eNextpeerIsCurrentlyInTournament,4,4
	.local	_ZL33g_s3eNextpeerTimeLeftInTournament
	.comm	_ZL33g_s3eNextpeerTimeLeftInTournament,4,4
	.local	_ZL46g_s3eNextpeerReportForfeitForCurrentTournament
	.comm	_ZL46g_s3eNextpeerReportForfeitForCurrentTournament,4,4
	.local	_ZL35g_s3eNextpeerPushDataToOtherPlayers
	.comm	_ZL35g_s3eNextpeerPushDataToOtherPlayers,4,4
	.local	_ZL43g_s3eNextpeerPushNotificationToOtherPlayers
	.comm	_ZL43g_s3eNextpeerPushNotificationToOtherPlayers,4,4
	.local	_ZL26g_s3eNextpeerHandleOpenURL
	.comm	_ZL26g_s3eNextpeerHandleOpenURL,4,4
	.local	_ZL36g_s3eNextpeerRegisterOpenURLCallback
	.comm	_ZL36g_s3eNextpeerRegisterOpenURLCallback,4,4
	.local	_ZL45g_s3eNextpeerSetUnifiedVirtualCurrencySupport
	.comm	_ZL45g_s3eNextpeerSetUnifiedVirtualCurrencySupport,4,4
	.local	_ZL21g_s3eNextpeerOpenFeed
	.comm	_ZL21g_s3eNextpeerOpenFeed,4,4
	.local	_ZL29g_s3eNextpeerRegisterCallback
	.comm	_ZL29g_s3eNextpeerRegisterCallback,4,4
	.local	_ZL31g_s3eNextpeerUnRegisterCallback
	.comm	_ZL31g_s3eNextpeerUnRegisterCallback,4,4
	.section	.rodata
	.align	2
.LC0:
	.ascii	"NEXTPEER\000"
	.align	2
.LC1:
	.ascii	"onNextpeerAppearCalled\000"
	.section	.text._Z22onNextpeerAppearCalledv,"ax",%progbits
	.align	2
	.global	_Z22onNextpeerAppearCalledv
	.hidden	_Z22onNextpeerAppearCalledv
	.type	_Z22onNextpeerAppearCalledv, %function
_Z22onNextpeerAppearCalledv:
.LFB270:
	.file 3 "C:\\Marmalade\\7.2\\examples\\HelloWorld\\s3eNextpeer\\source\\android\\s3eNextpeer_platform.cpp"
	.loc 3 37 0
	@ args = 0, pretend = 0, frame = 0
	@ frame_needed = 0, uses_anonymous_args = 0
	stmfd	sp!, {r4, lr}
.LCFI40:
	.loc 3 38 0
	ldr	r3, .L47
.LPIC1:
	add	r3, pc, r3
	mov	r0, r3
	mov	r1, #1
	bl	IwDebugTraceIsChannelOn(PLT)
	mov	r3, r0
	cmp	r3, #0
	moveq	r3, #0
	movne	r3, #1
	and	r3, r3, #255
	cmp	r3, #0
	beq	.L46
	ldr	r3, .L47+4
.LPIC2:
	add	r3, pc, r3
	mov	r0, r3
	bl	IwDebugTraceSetTraceChannel(PLT)
	ldr	r3, .L47+8
.LPIC3:
	add	r3, pc, r3
	mov	r0, r3
	bl	IwDebugTraceLinePrintf(PLT)
.L46:
	.loc 3 40 0
	ldmfd	sp!, {r4, pc}
.L48:
	.align	2
.L47:
	.word	.LC0-(.LPIC1+8)
	.word	.LC0-(.LPIC2+8)
	.word	.LC1-(.LPIC3+8)
.LFE270:
	.size	_Z22onNextpeerAppearCalledv, .-_Z22onNextpeerAppearCalledv
	.section	.rodata
	.align	2
.LC2:
	.ascii	"onNextpeerDisappearCalled\000"
	.section	.text._Z25onNextpeerDisappearCalledv,"ax",%progbits
	.align	2
	.global	_Z25onNextpeerDisappearCalledv
	.hidden	_Z25onNextpeerDisappearCalledv
	.type	_Z25onNextpeerDisappearCalledv, %function
_Z25onNextpeerDisappearCalledv:
.LFB271:
	.loc 3 42 0
	@ args = 0, pretend = 0, frame = 0
	@ frame_needed = 0, uses_anonymous_args = 0
	stmfd	sp!, {r4, lr}
.LCFI41:
	.loc 3 43 0
	ldr	r3, .L52
.LPIC4:
	add	r3, pc, r3
	mov	r0, r3
	mov	r1, #1
	bl	IwDebugTraceIsChannelOn(PLT)
	mov	r3, r0
	cmp	r3, #0
	moveq	r3, #0
	movne	r3, #1
	and	r3, r3, #255
	cmp	r3, #0
	beq	.L51
	ldr	r3, .L52+4
.LPIC5:
	add	r3, pc, r3
	mov	r0, r3
	bl	IwDebugTraceSetTraceChannel(PLT)
	ldr	r3, .L52+8
.LPIC6:
	add	r3, pc, r3
	mov	r0, r3
	bl	IwDebugTraceLinePrintf(PLT)
.L51:
	.loc 3 44 0
	ldmfd	sp!, {r4, pc}
.L53:
	.align	2
.L52:
	.word	.LC0-(.LPIC4+8)
	.word	.LC0-(.LPIC5+8)
	.word	.LC2-(.LPIC6+8)
.LFE271:
	.size	_Z25onNextpeerDisappearCalledv, .-_Z25onNextpeerDisappearCalledv
	.section	.rodata
	.align	2
.LC3:
	.ascii	"onNextpeerReturnToGameCalled\000"
	.section	.text._Z28onNextpeerReturnToGameCalledv,"ax",%progbits
	.align	2
	.global	_Z28onNextpeerReturnToGameCalledv
	.hidden	_Z28onNextpeerReturnToGameCalledv
	.type	_Z28onNextpeerReturnToGameCalledv, %function
_Z28onNextpeerReturnToGameCalledv:
.LFB272:
	.loc 3 46 0
	@ args = 0, pretend = 0, frame = 0
	@ frame_needed = 0, uses_anonymous_args = 0
	stmfd	sp!, {r4, lr}
.LCFI42:
	.loc 3 47 0
	ldr	r3, .L57
.LPIC7:
	add	r3, pc, r3
	mov	r0, r3
	mov	r1, #1
	bl	IwDebugTraceIsChannelOn(PLT)
	mov	r3, r0
	cmp	r3, #0
	moveq	r3, #0
	movne	r3, #1
	and	r3, r3, #255
	cmp	r3, #0
	beq	.L56
	ldr	r3, .L57+4
.LPIC8:
	add	r3, pc, r3
	mov	r0, r3
	bl	IwDebugTraceSetTraceChannel(PLT)
	ldr	r3, .L57+8
.LPIC9:
	add	r3, pc, r3
	mov	r0, r3
	bl	IwDebugTraceLinePrintf(PLT)
.L56:
	.loc 3 48 0
	ldmfd	sp!, {r4, pc}
.L58:
	.align	2
.L57:
	.word	.LC0-(.LPIC7+8)
	.word	.LC0-(.LPIC8+8)
	.word	.LC3-(.LPIC9+8)
.LFE272:
	.size	_Z28onNextpeerReturnToGameCalledv, .-_Z28onNextpeerReturnToGameCalledv
	.section	.rodata
	.align	2
.LC4:
	.ascii	"onReceiveTournamentStatusCalled\000"
	.section	.text._Z31onReceiveTournamentStatusCalledP7_JNIEnvP8_jobjectS2_,"ax",%progbits
	.align	2
	.global	_Z31onReceiveTournamentStatusCalledP7_JNIEnvP8_jobjectS2_
	.hidden	_Z31onReceiveTournamentStatusCalledP7_JNIEnvP8_jobjectS2_
	.type	_Z31onReceiveTournamentStatusCalledP7_JNIEnvP8_jobjectS2_, %function
_Z31onReceiveTournamentStatusCalledP7_JNIEnvP8_jobjectS2_:
.LFB273:
	.loc 3 50 0
	@ args = 0, pretend = 0, frame = 24
	@ frame_needed = 0, uses_anonymous_args = 0
	str	lr, [sp, #-4]!
.LCFI43:
	sub	sp, sp, #44
.LCFI44:
	str	r0, [sp, #28]
	str	r1, [sp, #24]
	str	r2, [sp, #20]
.LBB9:
	.loc 3 51 0
	ldr	r3, .L62
.LPIC10:
	add	r3, pc, r3
	mov	r0, r3
	mov	r1, #1
	bl	IwDebugTraceIsChannelOn(PLT)
	mov	r3, r0
	cmp	r3, #0
	moveq	r3, #0
	movne	r3, #1
	and	r3, r3, #255
	cmp	r3, #0
	beq	.L60
	ldr	r3, .L62+4
.LPIC11:
	add	r3, pc, r3
	mov	r0, r3
	bl	IwDebugTraceSetTraceChannel(PLT)
	ldr	r3, .L62+8
.LPIC12:
	add	r3, pc, r3
	mov	r0, r3
	bl	IwDebugTraceLinePrintf(PLT)
.L60:
	.loc 3 52 0
	ldr	r3, [sp, #20]
	str	r3, [sp, #36]
	.loc 3 53 0
	mov	r3, #0
	str	r3, [sp, #32]
	.loc 3 54 0
	add	r3, sp, #32
	ldr	r2, [sp, #36]
	str	r2, [sp, #0]
	mov	r2, #1
	str	r2, [sp, #4]
	mov	r2, #0
	str	r2, [sp, #8]
	mov	r2, #0
	str	r2, [sp, #12]
	ldr	r0, .L62+12
	mov	r1, #0
	mov	r2, r3
	mov	r3, #4
	bl	s3eEdkCallbacksEnqueue(PLT)
.LBE9:
	.loc 3 55 0
	add	sp, sp, #44
	ldmfd	sp!, {pc}
.L63:
	.align	2
.L62:
	.word	.LC0-(.LPIC10+8)
	.word	.LC0-(.LPIC11+8)
	.word	.LC4-(.LPIC12+8)
	.word	-1700565157
.LFE273:
	.size	_Z31onReceiveTournamentStatusCalledP7_JNIEnvP8_jobjectS2_, .-_Z31onReceiveTournamentStatusCalledP7_JNIEnvP8_jobjectS2_
	.section	.rodata
	.align	2
.LC5:
	.ascii	"onSupportsTournamentCalled\000"
	.section	.text._Z26onSupportsTournamentCalledv,"ax",%progbits
	.align	2
	.global	_Z26onSupportsTournamentCalledv
	.hidden	_Z26onSupportsTournamentCalledv
	.type	_Z26onSupportsTournamentCalledv, %function
_Z26onSupportsTournamentCalledv:
.LFB274:
	.loc 3 57 0
	@ args = 0, pretend = 0, frame = 0
	@ frame_needed = 0, uses_anonymous_args = 0
	stmfd	sp!, {r4, lr}
.LCFI45:
	.loc 3 58 0
	ldr	r3, .L67
.LPIC13:
	add	r3, pc, r3
	mov	r0, r3
	mov	r1, #1
	bl	IwDebugTraceIsChannelOn(PLT)
	mov	r3, r0
	cmp	r3, #0
	moveq	r3, #0
	movne	r3, #1
	and	r3, r3, #255
	cmp	r3, #0
	beq	.L66
	ldr	r3, .L67+4
.LPIC14:
	add	r3, pc, r3
	mov	r0, r3
	bl	IwDebugTraceSetTraceChannel(PLT)
	ldr	r3, .L67+8
.LPIC15:
	add	r3, pc, r3
	mov	r0, r3
	bl	IwDebugTraceLinePrintf(PLT)
.L66:
	.loc 3 59 0
	ldmfd	sp!, {r4, pc}
.L68:
	.align	2
.L67:
	.word	.LC0-(.LPIC13+8)
	.word	.LC0-(.LPIC14+8)
	.word	.LC5-(.LPIC15+8)
.LFE274:
	.size	_Z26onSupportsTournamentCalledv, .-_Z26onSupportsTournamentCalledv
	.section	.rodata
	.align	2
.LC6:
	.ascii	"onTournamentStartCalled\000"
	.section	.text._Z23onTournamentStartCalledv,"ax",%progbits
	.align	2
	.global	_Z23onTournamentStartCalledv
	.hidden	_Z23onTournamentStartCalledv
	.type	_Z23onTournamentStartCalledv, %function
_Z23onTournamentStartCalledv:
.LFB275:
	.loc 3 61 0
	@ args = 0, pretend = 0, frame = 0
	@ frame_needed = 0, uses_anonymous_args = 0
	stmfd	sp!, {r4, lr}
.LCFI46:
	.loc 3 62 0
	ldr	r3, .L72
.LPIC16:
	add	r3, pc, r3
	mov	r0, r3
	mov	r1, #1
	bl	IwDebugTraceIsChannelOn(PLT)
	mov	r3, r0
	cmp	r3, #0
	moveq	r3, #0
	movne	r3, #1
	and	r3, r3, #255
	cmp	r3, #0
	beq	.L71
	ldr	r3, .L72+4
.LPIC17:
	add	r3, pc, r3
	mov	r0, r3
	bl	IwDebugTraceSetTraceChannel(PLT)
	ldr	r3, .L72+8
.LPIC18:
	add	r3, pc, r3
	mov	r0, r3
	bl	IwDebugTraceLinePrintf(PLT)
.L71:
	.loc 3 63 0
	ldmfd	sp!, {r4, pc}
.L73:
	.align	2
.L72:
	.word	.LC0-(.LPIC16+8)
	.word	.LC0-(.LPIC17+8)
	.word	.LC6-(.LPIC18+8)
.LFE275:
	.size	_Z23onTournamentStartCalledv, .-_Z23onTournamentStartCalledv
	.section	.rodata
	.align	2
.LC7:
	.ascii	"onTournamentEndCalled\000"
	.section	.text._Z21onTournamentEndCalledv,"ax",%progbits
	.align	2
	.global	_Z21onTournamentEndCalledv
	.hidden	_Z21onTournamentEndCalledv
	.type	_Z21onTournamentEndCalledv, %function
_Z21onTournamentEndCalledv:
.LFB276:
	.loc 3 65 0
	@ args = 0, pretend = 0, frame = 0
	@ frame_needed = 0, uses_anonymous_args = 0
	stmfd	sp!, {r4, lr}
.LCFI47:
	.loc 3 66 0
	ldr	r3, .L77
.LPIC19:
	add	r3, pc, r3
	mov	r0, r3
	mov	r1, #1
	bl	IwDebugTraceIsChannelOn(PLT)
	mov	r3, r0
	cmp	r3, #0
	moveq	r3, #0
	movne	r3, #1
	and	r3, r3, #255
	cmp	r3, #0
	beq	.L76
	ldr	r3, .L77+4
.LPIC20:
	add	r3, pc, r3
	mov	r0, r3
	bl	IwDebugTraceSetTraceChannel(PLT)
	ldr	r3, .L77+8
.LPIC21:
	add	r3, pc, r3
	mov	r0, r3
	bl	IwDebugTraceLinePrintf(PLT)
.L76:
	.loc 3 67 0
	ldmfd	sp!, {r4, pc}
.L78:
	.align	2
.L77:
	.word	.LC0-(.LPIC19+8)
	.word	.LC0-(.LPIC20+8)
	.word	.LC7-(.LPIC21+8)
.LFE276:
	.size	_Z21onTournamentEndCalledv, .-_Z21onTournamentEndCalledv
	.section	.rodata
	.align	2
.LC8:
	.ascii	"onReceiveTournamentCustomMessageCalled\000"
	.section	.text._Z38onReceiveTournamentCustomMessageCalledv,"ax",%progbits
	.align	2
	.global	_Z38onReceiveTournamentCustomMessageCalledv
	.hidden	_Z38onReceiveTournamentCustomMessageCalledv
	.type	_Z38onReceiveTournamentCustomMessageCalledv, %function
_Z38onReceiveTournamentCustomMessageCalledv:
.LFB277:
	.loc 3 69 0
	@ args = 0, pretend = 0, frame = 0
	@ frame_needed = 0, uses_anonymous_args = 0
	stmfd	sp!, {r4, lr}
.LCFI48:
	.loc 3 70 0
	ldr	r3, .L82
.LPIC22:
	add	r3, pc, r3
	mov	r0, r3
	mov	r1, #1
	bl	IwDebugTraceIsChannelOn(PLT)
	mov	r3, r0
	cmp	r3, #0
	moveq	r3, #0
	movne	r3, #1
	and	r3, r3, #255
	cmp	r3, #0
	beq	.L81
	ldr	r3, .L82+4
.LPIC23:
	add	r3, pc, r3
	mov	r0, r3
	bl	IwDebugTraceSetTraceChannel(PLT)
	ldr	r3, .L82+8
.LPIC24:
	add	r3, pc, r3
	mov	r0, r3
	bl	IwDebugTraceLinePrintf(PLT)
.L81:
	.loc 3 71 0
	ldmfd	sp!, {r4, pc}
.L83:
	.align	2
.L82:
	.word	.LC0-(.LPIC22+8)
	.word	.LC0-(.LPIC23+8)
	.word	.LC8-(.LPIC24+8)
.LFE277:
	.size	_Z38onReceiveTournamentCustomMessageCalledv, .-_Z38onReceiveTournamentCustomMessageCalledv
	.section	.rodata
	.align	2
.LC9:
	.ascii	"onReceiveUnreliableTournamentCustomMessageCalled\000"
	.section	.text._Z48onReceiveUnreliableTournamentCustomMessageCalledv,"ax",%progbits
	.align	2
	.global	_Z48onReceiveUnreliableTournamentCustomMessageCalledv
	.hidden	_Z48onReceiveUnreliableTournamentCustomMessageCalledv
	.type	_Z48onReceiveUnreliableTournamentCustomMessageCalledv, %function
_Z48onReceiveUnreliableTournamentCustomMessageCalledv:
.LFB278:
	.loc 3 73 0
	@ args = 0, pretend = 0, frame = 0
	@ frame_needed = 0, uses_anonymous_args = 0
	stmfd	sp!, {r4, lr}
.LCFI49:
	.loc 3 74 0
	ldr	r3, .L87
.LPIC25:
	add	r3, pc, r3
	mov	r0, r3
	mov	r1, #1
	bl	IwDebugTraceIsChannelOn(PLT)
	mov	r3, r0
	cmp	r3, #0
	moveq	r3, #0
	movne	r3, #1
	and	r3, r3, #255
	cmp	r3, #0
	beq	.L86
	ldr	r3, .L87+4
.LPIC26:
	add	r3, pc, r3
	mov	r0, r3
	bl	IwDebugTraceSetTraceChannel(PLT)
	ldr	r3, .L87+8
.LPIC27:
	add	r3, pc, r3
	mov	r0, r3
	bl	IwDebugTraceLinePrintf(PLT)
.L86:
	.loc 3 75 0
	ldmfd	sp!, {r4, pc}
.L88:
	.align	2
.L87:
	.word	.LC0-(.LPIC25+8)
	.word	.LC0-(.LPIC26+8)
	.word	.LC9-(.LPIC27+8)
.LFE278:
	.size	_Z48onReceiveUnreliableTournamentCustomMessageCalledv, .-_Z48onReceiveUnreliableTournamentCustomMessageCalledv
	.section	.rodata
	.align	2
.LC10:
	.ascii	"s3eNextpeer\000"
	.align	2
.LC11:
	.ascii	"com/ideaworks3d/marmalade/s3eNextpeerApplication\000"
	.align	2
.LC12:
	.ascii	"<init>\000"
	.align	2
.LC13:
	.ascii	"()V\000"
	.align	2
.LC14:
	.ascii	"s3eNextpeerInitWithProductKey\000"
	.align	2
.LC15:
	.ascii	"(Ljava/lang/String;)V\000"
	.align	2
.LC16:
	.ascii	"s3eNextpeerLaunchDashboard\000"
	.align	2
.LC17:
	.ascii	"s3eNextpeerLaunchDashboardWithCurrencyAmount\000"
	.align	2
.LC18:
	.ascii	"(I)V\000"
	.align	2
.LC19:
	.ascii	"s3eNextpeerDismissDashboard\000"
	.align	2
.LC20:
	.ascii	"s3eNextpeerShutDown\000"
	.align	2
.LC21:
	.ascii	"s3eNextpeerReportScoreForCurrentTournament\000"
	.align	2
.LC22:
	.ascii	"s3eNextpeerIsCurrentlyInTournament\000"
	.align	2
.LC23:
	.ascii	"()Z\000"
	.align	2
.LC24:
	.ascii	"s3eNextpeerTimeLeftInTournament\000"
	.align	2
.LC25:
	.ascii	"()I\000"
	.align	2
.LC26:
	.ascii	"s3eNextpeerReportForfeitForCurrentTournament\000"
	.align	2
.LC27:
	.ascii	"s3eNextpeerPushDataToOtherPlayers\000"
	.align	2
.LC28:
	.ascii	"(II)V\000"
	.align	2
.LC29:
	.ascii	"s3eNextpeerPushNotificationToOtherPlayers\000"
	.align	2
.LC30:
	.ascii	"s3eNextpeerHandleOpenURL\000"
	.align	2
.LC31:
	.ascii	"s3eNextpeerRegisterOpenURLCallback\000"
	.align	2
.LC32:
	.ascii	"s3eNextpeerSetUnifiedVirtualCurrencySupport\000"
	.align	2
.LC33:
	.ascii	"(Z)V\000"
	.align	2
.LC34:
	.ascii	"s3eNextpeerOpenFeed\000"
	.align	2
.LC35:
	.ascii	"s3eNextpeerRegisterCallback\000"
	.align	2
.LC36:
	.ascii	"(III)I\000"
	.align	2
.LC37:
	.ascii	"s3eNextpeerUnRegisterCallback\000"
	.align	2
.LC38:
	.ascii	"(II)I\000"
	.align	2
.LC39:
	.ascii	"NEXTPEER init success\000"
	.align	2
.LC40:
	.ascii	"One or more java methods could not be found\000"
	.section	.text._Z24s3eNextpeerInit_platformv,"ax",%progbits
	.align	2
	.global	_Z24s3eNextpeerInit_platformv
	.hidden	_Z24s3eNextpeerInit_platformv
	.type	_Z24s3eNextpeerInit_platformv, %function
_Z24s3eNextpeerInit_platformv:
.LFB279:
	.loc 3 77 0
	@ args = 0, pretend = 0, frame = 24
	@ frame_needed = 0, uses_anonymous_args = 0
	str	lr, [sp, #-4]!
.LCFI50:
	sub	sp, sp, #28
.LCFI51:
.LBB10:
	.loc 3 79 0
	bl	_ZL15s3eEdkJNIGetEnvv(PLT)
	mov	r3, r0
	str	r3, [sp, #0]
	.loc 3 80 0
	mov	r3, #0
	str	r3, [sp, #4]
	.loc 3 81 0
	mov	r3, #0
	str	r3, [sp, #8]
	.loc 3 98 0
	ldr	r3, .L133
.LPIC28:
	add	r3, pc, r3
	mov	r0, r3
	bl	_ZL22s3eEdkAndroidFindClassPKc(PLT)
	mov	r3, r0
	str	r3, [sp, #12]
	.loc 3 100 0
	ldr	r3, .L133+4
.LPIC29:
	add	r3, pc, r3
	mov	r0, r3
	bl	_ZL22s3eEdkAndroidFindClassPKc(PLT)
	mov	r3, r0
	str	r3, [sp, #16]
	.loc 3 101 0
	ldr	r3, [sp, #16]
	cmp	r3, #0
	beq	.L90
	ldr	r3, [sp, #12]
	cmp	r3, #0
	beq	.L90
	.loc 3 105 0
	ldr	r0, [sp, #0]
	ldr	r1, [sp, #12]
	ldr	r3, .L133+8
.LPIC30:
	add	r3, pc, r3
	mov	r2, r3
	ldr	r3, .L133+12
.LPIC31:
	add	r3, pc, r3
	bl	_ZN7_JNIEnv11GetMethodIDEP7_jclassPKcS3_(PLT)
	mov	r3, r0
	str	r3, [sp, #8]
	.loc 3 106 0
	ldr	r3, [sp, #8]
	cmp	r3, #0
	beq	.L114
.L91:
	.loc 3 110 0
	ldr	r0, [sp, #0]
	ldr	r1, [sp, #12]
	ldr	r2, [sp, #8]
	bl	_ZN7_JNIEnv9NewObjectEP7_jclassP10_jmethodIDz(PLT)
	mov	r3, r0
	str	r3, [sp, #4]
	.loc 3 111 0
	ldr	r3, [sp, #4]
	cmp	r3, #0
	beq	.L115
.L92:
	.loc 3 115 0
	ldr	r0, [sp, #0]
	ldr	r1, [sp, #12]
	ldr	r3, .L133+16
.LPIC32:
	add	r3, pc, r3
	mov	r2, r3
	ldr	r3, .L133+20
.LPIC33:
	add	r3, pc, r3
	bl	_ZN7_JNIEnv11GetMethodIDEP7_jclassPKcS3_(PLT)
	mov	r2, r0
	ldr	r3, .L133+24
.LPIC34:
	add	r3, pc, r3
	str	r2, [r3, #0]
	.loc 3 116 0
	ldr	r3, .L133+28
.LPIC35:
	add	r3, pc, r3
	ldr	r3, [r3, #0]
	cmp	r3, #0
	beq	.L116
.L93:
	.loc 3 119 0
	ldr	r0, [sp, #0]
	ldr	r1, [sp, #12]
	ldr	r3, .L133+32
.LPIC36:
	add	r3, pc, r3
	mov	r2, r3
	ldr	r3, .L133+36
.LPIC37:
	add	r3, pc, r3
	bl	_ZN7_JNIEnv11GetMethodIDEP7_jclassPKcS3_(PLT)
	mov	r2, r0
	ldr	r3, .L133+40
.LPIC38:
	add	r3, pc, r3
	str	r2, [r3, #0]
	.loc 3 120 0
	ldr	r3, .L133+44
.LPIC39:
	add	r3, pc, r3
	ldr	r3, [r3, #0]
	cmp	r3, #0
	beq	.L117
.L94:
	.loc 3 123 0
	ldr	r0, [sp, #0]
	ldr	r1, [sp, #12]
	ldr	r3, .L133+48
.LPIC40:
	add	r3, pc, r3
	mov	r2, r3
	ldr	r3, .L133+52
.LPIC41:
	add	r3, pc, r3
	bl	_ZN7_JNIEnv11GetMethodIDEP7_jclassPKcS3_(PLT)
	mov	r2, r0
	ldr	r3, .L133+56
.LPIC42:
	add	r3, pc, r3
	str	r2, [r3, #0]
	.loc 3 124 0
	ldr	r3, .L133+60
.LPIC43:
	add	r3, pc, r3
	ldr	r3, [r3, #0]
	cmp	r3, #0
	beq	.L118
.L95:
	.loc 3 127 0
	ldr	r0, [sp, #0]
	ldr	r1, [sp, #12]
	ldr	r3, .L133+64
.LPIC44:
	add	r3, pc, r3
	mov	r2, r3
	ldr	r3, .L133+68
.LPIC45:
	add	r3, pc, r3
	bl	_ZN7_JNIEnv11GetMethodIDEP7_jclassPKcS3_(PLT)
	mov	r2, r0
	ldr	r3, .L133+72
.LPIC46:
	add	r3, pc, r3
	str	r2, [r3, #0]
	.loc 3 128 0
	ldr	r3, .L133+76
.LPIC47:
	add	r3, pc, r3
	ldr	r3, [r3, #0]
	cmp	r3, #0
	beq	.L119
.L96:
	.loc 3 131 0
	ldr	r0, [sp, #0]
	ldr	r1, [sp, #12]
	ldr	r3, .L133+80
.LPIC48:
	add	r3, pc, r3
	mov	r2, r3
	ldr	r3, .L133+84
.LPIC49:
	add	r3, pc, r3
	bl	_ZN7_JNIEnv11GetMethodIDEP7_jclassPKcS3_(PLT)
	mov	r2, r0
	ldr	r3, .L133+88
.LPIC50:
	add	r3, pc, r3
	str	r2, [r3, #0]
	.loc 3 132 0
	ldr	r3, .L133+92
.LPIC51:
	add	r3, pc, r3
	ldr	r3, [r3, #0]
	cmp	r3, #0
	beq	.L120
.L97:
	.loc 3 135 0
	ldr	r0, [sp, #0]
	ldr	r1, [sp, #12]
	ldr	r3, .L133+96
.LPIC52:
	add	r3, pc, r3
	mov	r2, r3
	ldr	r3, .L133+100
.LPIC53:
	add	r3, pc, r3
	bl	_ZN7_JNIEnv11GetMethodIDEP7_jclassPKcS3_(PLT)
	mov	r2, r0
	ldr	r3, .L133+104
.LPIC54:
	add	r3, pc, r3
	str	r2, [r3, #0]
	.loc 3 136 0
	ldr	r3, .L133+108
.LPIC55:
	add	r3, pc, r3
	ldr	r3, [r3, #0]
	cmp	r3, #0
	beq	.L121
.L98:
	.loc 3 139 0
	ldr	r0, [sp, #0]
	ldr	r1, [sp, #12]
	ldr	r3, .L133+112
.LPIC56:
	add	r3, pc, r3
	mov	r2, r3
	ldr	r3, .L133+116
.LPIC57:
	add	r3, pc, r3
	bl	_ZN7_JNIEnv11GetMethodIDEP7_jclassPKcS3_(PLT)
	mov	r2, r0
	ldr	r3, .L133+120
.LPIC58:
	add	r3, pc, r3
	str	r2, [r3, #0]
	.loc 3 140 0
	ldr	r3, .L133+124
.LPIC59:
	add	r3, pc, r3
	ldr	r3, [r3, #0]
	cmp	r3, #0
	beq	.L122
.L99:
	.loc 3 143 0
	ldr	r0, [sp, #0]
	ldr	r1, [sp, #12]
	ldr	r3, .L133+128
.LPIC60:
	add	r3, pc, r3
	mov	r2, r3
	ldr	r3, .L133+132
.LPIC61:
	add	r3, pc, r3
	bl	_ZN7_JNIEnv11GetMethodIDEP7_jclassPKcS3_(PLT)
	mov	r2, r0
	ldr	r3, .L133+136
.LPIC62:
	add	r3, pc, r3
	str	r2, [r3, #0]
	.loc 3 144 0
	ldr	r3, .L133+140
.LPIC63:
	add	r3, pc, r3
	ldr	r3, [r3, #0]
	cmp	r3, #0
	beq	.L123
.L100:
	.loc 3 147 0
	ldr	r0, [sp, #0]
	ldr	r1, [sp, #12]
	ldr	r3, .L133+144
.LPIC64:
	add	r3, pc, r3
	mov	r2, r3
	ldr	r3, .L133+148
.LPIC65:
	add	r3, pc, r3
	bl	_ZN7_JNIEnv11GetMethodIDEP7_jclassPKcS3_(PLT)
	mov	r2, r0
	ldr	r3, .L133+152
.LPIC66:
	add	r3, pc, r3
	str	r2, [r3, #0]
	.loc 3 148 0
	ldr	r3, .L133+156
.LPIC67:
	add	r3, pc, r3
	ldr	r3, [r3, #0]
	cmp	r3, #0
	beq	.L124
.L101:
	.loc 3 151 0
	ldr	r0, [sp, #0]
	ldr	r1, [sp, #12]
	ldr	r3, .L133+160
.LPIC68:
	add	r3, pc, r3
	mov	r2, r3
	ldr	r3, .L133+164
.LPIC69:
	add	r3, pc, r3
	bl	_ZN7_JNIEnv11GetMethodIDEP7_jclassPKcS3_(PLT)
	mov	r2, r0
	ldr	r3, .L133+168
.LPIC70:
	add	r3, pc, r3
	str	r2, [r3, #0]
	.loc 3 152 0
	ldr	r3, .L133+172
.LPIC71:
	add	r3, pc, r3
	ldr	r3, [r3, #0]
	cmp	r3, #0
	beq	.L125
.L102:
	.loc 3 155 0
	ldr	r0, [sp, #0]
	ldr	r1, [sp, #12]
	ldr	r3, .L133+176
.LPIC72:
	add	r3, pc, r3
	mov	r2, r3
	ldr	r3, .L133+180
.LPIC73:
	add	r3, pc, r3
	bl	_ZN7_JNIEnv11GetMethodIDEP7_jclassPKcS3_(PLT)
	mov	r2, r0
	ldr	r3, .L133+184
.LPIC74:
	add	r3, pc, r3
	str	r2, [r3, #0]
	.loc 3 156 0
	ldr	r3, .L133+188
.LPIC75:
	add	r3, pc, r3
	ldr	r3, [r3, #0]
	cmp	r3, #0
	beq	.L126
.L103:
	.loc 3 159 0
	ldr	r0, [sp, #0]
	ldr	r1, [sp, #12]
	ldr	r3, .L133+192
.LPIC76:
	add	r3, pc, r3
	mov	r2, r3
	ldr	r3, .L133+196
.LPIC77:
	add	r3, pc, r3
	bl	_ZN7_JNIEnv11GetMethodIDEP7_jclassPKcS3_(PLT)
	mov	r2, r0
	ldr	r3, .L133+200
.LPIC78:
	add	r3, pc, r3
	str	r2, [r3, #0]
	.loc 3 160 0
	ldr	r3, .L133+204
.LPIC79:
	add	r3, pc, r3
	ldr	r3, [r3, #0]
	cmp	r3, #0
	beq	.L127
.L104:
	.loc 3 163 0
	ldr	r0, [sp, #0]
	ldr	r1, [sp, #12]
	ldr	r3, .L133+208
.LPIC80:
	add	r3, pc, r3
	mov	r2, r3
	ldr	r3, .L133+212
.LPIC81:
	add	r3, pc, r3
	bl	_ZN7_JNIEnv11GetMethodIDEP7_jclassPKcS3_(PLT)
	mov	r2, r0
	ldr	r3, .L133+216
.LPIC82:
	add	r3, pc, r3
	str	r2, [r3, #0]
	.loc 3 164 0
	ldr	r3, .L133+220
.LPIC83:
	add	r3, pc, r3
	ldr	r3, [r3, #0]
	cmp	r3, #0
	beq	.L128
.L105:
	.loc 3 167 0
	ldr	r0, [sp, #0]
	ldr	r1, [sp, #12]
	ldr	r3, .L133+224
.LPIC84:
	add	r3, pc, r3
	mov	r2, r3
	ldr	r3, .L133+228
.LPIC85:
	add	r3, pc, r3
	bl	_ZN7_JNIEnv11GetMethodIDEP7_jclassPKcS3_(PLT)
	mov	r2, r0
	ldr	r3, .L133+232
.LPIC86:
	add	r3, pc, r3
	str	r2, [r3, #0]
	.loc 3 168 0
	ldr	r3, .L133+236
.LPIC87:
	add	r3, pc, r3
	ldr	r3, [r3, #0]
	cmp	r3, #0
	beq	.L129
.L106:
	.loc 3 171 0
	ldr	r0, [sp, #0]
	ldr	r1, [sp, #12]
	ldr	r3, .L133+240
.LPIC88:
	add	r3, pc, r3
	mov	r2, r3
	ldr	r3, .L133+244
.LPIC89:
	add	r3, pc, r3
	bl	_ZN7_JNIEnv11GetMethodIDEP7_jclassPKcS3_(PLT)
	mov	r2, r0
	ldr	r3, .L133+248
.LPIC90:
	add	r3, pc, r3
	str	r2, [r3, #0]
	.loc 3 172 0
	ldr	r3, .L133+252
.LPIC91:
	add	r3, pc, r3
	ldr	r3, [r3, #0]
	cmp	r3, #0
	beq	.L130
.L107:
	.loc 3 175 0
	ldr	r0, [sp, #0]
	ldr	r1, [sp, #12]
	ldr	r3, .L133+256
.LPIC92:
	add	r3, pc, r3
	mov	r2, r3
	ldr	r3, .L133+260
.LPIC93:
	add	r3, pc, r3
	bl	_ZN7_JNIEnv11GetMethodIDEP7_jclassPKcS3_(PLT)
	mov	r2, r0
	ldr	r3, .L133+264
.LPIC94:
	add	r3, pc, r3
	str	r2, [r3, #0]
	.loc 3 176 0
	ldr	r3, .L133+268
.LPIC95:
	add	r3, pc, r3
	ldr	r3, [r3, #0]
	cmp	r3, #0
	beq	.L131
.L108:
	.loc 3 179 0
	ldr	r0, [sp, #0]
	ldr	r1, [sp, #12]
	ldr	r3, .L133+272
.LPIC96:
	add	r3, pc, r3
	mov	r2, r3
	ldr	r3, .L133+276
.LPIC97:
	add	r3, pc, r3
	bl	_ZN7_JNIEnv11GetMethodIDEP7_jclassPKcS3_(PLT)
	mov	r2, r0
	ldr	r3, .L133+280
.LPIC98:
	add	r3, pc, r3
	str	r2, [r3, #0]
	.loc 3 180 0
	ldr	r3, .L133+284
.LPIC99:
	add	r3, pc, r3
	ldr	r3, [r3, #0]
	cmp	r3, #0
	beq	.L132
.L109:
	.loc 3 183 0
	ldr	r0, [sp, #0]
	ldr	r1, [sp, #16]
	ldr	r3, .L133+288
.LPIC100:
	add	r3, pc, r3
	mov	r2, r3
	mov	r3, #9
	bl	_ZN7_JNIEnv15RegisterNativesEP7_jclassPK15JNINativeMethodi(PLT)
	.loc 3 188 0
	ldr	r3, .L133+292
.LPIC101:
	add	r3, pc, r3
	mov	r0, r3
	mov	r1, #1
	bl	IwDebugTraceIsChannelOn(PLT)
	mov	r3, r0
	cmp	r3, #0
	moveq	r3, #0
	movne	r3, #1
	and	r3, r3, #255
	cmp	r3, #0
	beq	.L110
	ldr	r3, .L133+296
.LPIC102:
	add	r3, pc, r3
	mov	r0, r3
	bl	IwDebugTraceSetTraceChannel(PLT)
	ldr	r3, .L133+300
.LPIC103:
	add	r3, pc, r3
	mov	r0, r3
	bl	IwDebugTraceLinePrintf(PLT)
.L110:
	.loc 3 189 0
	ldr	r0, [sp, #0]
	ldr	r1, [sp, #4]
	bl	_ZN7_JNIEnv12NewGlobalRefEP8_jobject(PLT)
	mov	r2, r0
	ldr	r3, .L133+304
.LPIC104:
	add	r3, pc, r3
	str	r2, [r3, #0]
	.loc 3 190 0
	ldr	r0, [sp, #0]
	ldr	r1, [sp, #4]
	bl	_ZN7_JNIEnv14DeleteLocalRefEP8_jobject(PLT)
	.loc 3 191 0
	ldr	r3, [sp, #12]
	ldr	r0, [sp, #0]
	mov	r1, r3
	bl	_ZN7_JNIEnv15DeleteGlobalRefEP8_jobject(PLT)
	.loc 3 194 0
	mov	r3, #0
	b	.L111
.L114:
	.loc 3 107 0
	mov	r0, r0	@ nop
	b	.L90
.L115:
	.loc 3 112 0
	mov	r0, r0	@ nop
	b	.L90
.L116:
	.loc 3 117 0
	mov	r0, r0	@ nop
	b	.L90
.L117:
	.loc 3 121 0
	mov	r0, r0	@ nop
	b	.L90
.L118:
	.loc 3 125 0
	mov	r0, r0	@ nop
	b	.L90
.L119:
	.loc 3 129 0
	mov	r0, r0	@ nop
	b	.L90
.L120:
	.loc 3 133 0
	mov	r0, r0	@ nop
	b	.L90
.L121:
	.loc 3 137 0
	mov	r0, r0	@ nop
	b	.L90
.L122:
	.loc 3 141 0
	mov	r0, r0	@ nop
	b	.L90
.L123:
	.loc 3 145 0
	mov	r0, r0	@ nop
	b	.L90
.L124:
	.loc 3 149 0
	mov	r0, r0	@ nop
	b	.L90
.L125:
	.loc 3 153 0
	mov	r0, r0	@ nop
	b	.L90
.L126:
	.loc 3 157 0
	mov	r0, r0	@ nop
	b	.L90
.L127:
	.loc 3 161 0
	mov	r0, r0	@ nop
	b	.L90
.L128:
	.loc 3 165 0
	mov	r0, r0	@ nop
	b	.L90
.L129:
	.loc 3 169 0
	mov	r0, r0	@ nop
	b	.L90
.L130:
	.loc 3 173 0
	mov	r0, r0	@ nop
	b	.L90
.L131:
	.loc 3 177 0
	mov	r0, r0	@ nop
	b	.L90
.L132:
	.loc 3 181 0
	mov	r0, r0	@ nop
.L90:
	.loc 3 197 0
	ldr	r0, [sp, #0]
	bl	_ZN7_JNIEnv17ExceptionOccurredEv(PLT)
	mov	r3, r0
	str	r3, [sp, #20]
	.loc 3 198 0
	ldr	r3, [sp, #20]
	cmp	r3, #0
	beq	.L112
	.loc 3 200 0
	ldr	r0, [sp, #0]
	bl	_ZN7_JNIEnv17ExceptionDescribeEv(PLT)
	.loc 3 201 0
	ldr	r0, [sp, #0]
	bl	_ZN7_JNIEnv14ExceptionClearEv(PLT)
	.loc 3 202 0
	ldr	r3, .L133+308
.LPIC105:
	add	r3, pc, r3
	mov	r0, r3
	mov	r1, #1
	bl	IwDebugTraceIsChannelOn(PLT)
	mov	r3, r0
	cmp	r3, #0
	moveq	r3, #0
	movne	r3, #1
	and	r3, r3, #255
	cmp	r3, #0
	beq	.L112
	ldr	r3, .L133+312
.LPIC106:
	add	r3, pc, r3
	mov	r0, r3
	bl	IwDebugTraceSetTraceChannel(PLT)
	ldr	r3, .L133+316
.LPIC107:
	add	r3, pc, r3
	mov	r0, r3
	bl	IwDebugTraceLinePrintf(PLT)
.L112:
	.loc 3 204 0
	mov	r3, #1
.L111:
.LBE10:
	.loc 3 206 0
	mov	r0, r3
	add	sp, sp, #28
	ldmfd	sp!, {pc}
.L134:
	.align	2
.L133:
	.word	.LC10-(.LPIC28+8)
	.word	.LC11-(.LPIC29+8)
	.word	.LC12-(.LPIC30+8)
	.word	.LC13-(.LPIC31+8)
	.word	.LC14-(.LPIC32+8)
	.word	.LC15-(.LPIC33+8)
	.word	_ZL31g_s3eNextpeerInitWithProductKey-(.LPIC34+8)
	.word	_ZL31g_s3eNextpeerInitWithProductKey-(.LPIC35+8)
	.word	.LC16-(.LPIC36+8)
	.word	.LC13-(.LPIC37+8)
	.word	_ZL28g_s3eNextpeerLaunchDashboard-(.LPIC38+8)
	.word	_ZL28g_s3eNextpeerLaunchDashboard-(.LPIC39+8)
	.word	.LC17-(.LPIC40+8)
	.word	.LC18-(.LPIC41+8)
	.word	_ZL46g_s3eNextpeerLaunchDashboardWithCurrencyAmount-(.LPIC42+8)
	.word	_ZL46g_s3eNextpeerLaunchDashboardWithCurrencyAmount-(.LPIC43+8)
	.word	.LC19-(.LPIC44+8)
	.word	.LC13-(.LPIC45+8)
	.word	_ZL29g_s3eNextpeerDismissDashboard-(.LPIC46+8)
	.word	_ZL29g_s3eNextpeerDismissDashboard-(.LPIC47+8)
	.word	.LC20-(.LPIC48+8)
	.word	.LC13-(.LPIC49+8)
	.word	_ZL21g_s3eNextpeerShutDown-(.LPIC50+8)
	.word	_ZL21g_s3eNextpeerShutDown-(.LPIC51+8)
	.word	.LC21-(.LPIC52+8)
	.word	.LC18-(.LPIC53+8)
	.word	_ZL44g_s3eNextpeerReportScoreForCurrentTournament-(.LPIC54+8)
	.word	_ZL44g_s3eNextpeerReportScoreForCurrentTournament-(.LPIC55+8)
	.word	.LC22-(.LPIC56+8)
	.word	.LC23-(.LPIC57+8)
	.word	_ZL36g_s3eNextpeerIsCurrentlyInTournament-(.LPIC58+8)
	.word	_ZL36g_s3eNextpeerIsCurrentlyInTournament-(.LPIC59+8)
	.word	.LC24-(.LPIC60+8)
	.word	.LC25-(.LPIC61+8)
	.word	_ZL33g_s3eNextpeerTimeLeftInTournament-(.LPIC62+8)
	.word	_ZL33g_s3eNextpeerTimeLeftInTournament-(.LPIC63+8)
	.word	.LC26-(.LPIC64+8)
	.word	.LC13-(.LPIC65+8)
	.word	_ZL46g_s3eNextpeerReportForfeitForCurrentTournament-(.LPIC66+8)
	.word	_ZL46g_s3eNextpeerReportForfeitForCurrentTournament-(.LPIC67+8)
	.word	.LC27-(.LPIC68+8)
	.word	.LC28-(.LPIC69+8)
	.word	_ZL35g_s3eNextpeerPushDataToOtherPlayers-(.LPIC70+8)
	.word	_ZL35g_s3eNextpeerPushDataToOtherPlayers-(.LPIC71+8)
	.word	.LC29-(.LPIC72+8)
	.word	.LC15-(.LPIC73+8)
	.word	_ZL43g_s3eNextpeerPushNotificationToOtherPlayers-(.LPIC74+8)
	.word	_ZL43g_s3eNextpeerPushNotificationToOtherPlayers-(.LPIC75+8)
	.word	.LC30-(.LPIC76+8)
	.word	.LC18-(.LPIC77+8)
	.word	_ZL26g_s3eNextpeerHandleOpenURL-(.LPIC78+8)
	.word	_ZL26g_s3eNextpeerHandleOpenURL-(.LPIC79+8)
	.word	.LC31-(.LPIC80+8)
	.word	.LC13-(.LPIC81+8)
	.word	_ZL36g_s3eNextpeerRegisterOpenURLCallback-(.LPIC82+8)
	.word	_ZL36g_s3eNextpeerRegisterOpenURLCallback-(.LPIC83+8)
	.word	.LC32-(.LPIC84+8)
	.word	.LC33-(.LPIC85+8)
	.word	_ZL45g_s3eNextpeerSetUnifiedVirtualCurrencySupport-(.LPIC86+8)
	.word	_ZL45g_s3eNextpeerSetUnifiedVirtualCurrencySupport-(.LPIC87+8)
	.word	.LC34-(.LPIC88+8)
	.word	.LC13-(.LPIC89+8)
	.word	_ZL21g_s3eNextpeerOpenFeed-(.LPIC90+8)
	.word	_ZL21g_s3eNextpeerOpenFeed-(.LPIC91+8)
	.word	.LC35-(.LPIC92+8)
	.word	.LC36-(.LPIC93+8)
	.word	_ZL29g_s3eNextpeerRegisterCallback-(.LPIC94+8)
	.word	_ZL29g_s3eNextpeerRegisterCallback-(.LPIC95+8)
	.word	.LC37-(.LPIC96+8)
	.word	.LC38-(.LPIC97+8)
	.word	_ZL31g_s3eNextpeerUnRegisterCallback-(.LPIC98+8)
	.word	_ZL31g_s3eNextpeerUnRegisterCallback-(.LPIC99+8)
	.word	_ZZ24s3eNextpeerInit_platformvE18g_JNIthreadMethods-(.LPIC100+8)
	.word	.LC0-(.LPIC101+8)
	.word	.LC0-(.LPIC102+8)
	.word	.LC39-(.LPIC103+8)
	.word	_ZL5g_Obj-(.LPIC104+8)
	.word	.LC10-(.LPIC105+8)
	.word	.LC10-(.LPIC106+8)
	.word	.LC40-(.LPIC107+8)
.LFE279:
	.size	_Z24s3eNextpeerInit_platformv, .-_Z24s3eNextpeerInit_platformv
	.section	.text._Z29s3eNextpeerTerminate_platformv,"ax",%progbits
	.align	2
	.global	_Z29s3eNextpeerTerminate_platformv
	.hidden	_Z29s3eNextpeerTerminate_platformv
	.type	_Z29s3eNextpeerTerminate_platformv, %function
_Z29s3eNextpeerTerminate_platformv:
.LFB280:
	.loc 3 209 0
	@ args = 0, pretend = 0, frame = 0
	@ frame_needed = 0, uses_anonymous_args = 0
	@ link register save eliminated.
	.loc 3 211 0
	bx	lr
.LFE280:
	.size	_Z29s3eNextpeerTerminate_platformv, .-_Z29s3eNextpeerTerminate_platformv
	.section	.text._Z38s3eNextpeerInitWithProductKey_platformPKc,"ax",%progbits
	.align	2
	.global	_Z38s3eNextpeerInitWithProductKey_platformPKc
	.hidden	_Z38s3eNextpeerInitWithProductKey_platformPKc
	.type	_Z38s3eNextpeerInitWithProductKey_platformPKc, %function
_Z38s3eNextpeerInitWithProductKey_platformPKc:
.LFB281:
	.loc 3 214 0
	@ args = 0, pretend = 0, frame = 16
	@ frame_needed = 0, uses_anonymous_args = 0
	str	lr, [sp, #-4]!
.LCFI52:
	sub	sp, sp, #20
.LCFI53:
	str	r0, [sp, #4]
.LBB11:
	.loc 3 215 0
	bl	_ZL15s3eEdkJNIGetEnvv(PLT)
	mov	r3, r0
	str	r3, [sp, #8]
	.loc 3 216 0
	ldr	r0, [sp, #8]
	ldr	r1, [sp, #4]
	bl	_ZN7_JNIEnv12NewStringUTFEPKc(PLT)
	mov	r3, r0
	str	r3, [sp, #12]
	.loc 3 217 0
	ldr	r3, .L139
.LPIC108:
	add	r3, pc, r3
	ldr	r2, [r3, #0]
	ldr	r3, .L139+4
.LPIC109:
	add	r3, pc, r3
	ldr	r3, [r3, #0]
	ldr	r0, [sp, #8]
	mov	r1, r2
	mov	r2, r3
	ldr	r3, [sp, #12]
	bl	_ZN7_JNIEnv14CallVoidMethodEP8_jobjectP10_jmethodIDz(PLT)
.LBE11:
	.loc 3 218 0
	add	sp, sp, #20
	ldmfd	sp!, {pc}
.L140:
	.align	2
.L139:
	.word	_ZL5g_Obj-(.LPIC108+8)
	.word	_ZL31g_s3eNextpeerInitWithProductKey-(.LPIC109+8)
.LFE281:
	.size	_Z38s3eNextpeerInitWithProductKey_platformPKc, .-_Z38s3eNextpeerInitWithProductKey_platformPKc
	.section	.text._Z35s3eNextpeerLaunchDashboard_platformv,"ax",%progbits
	.align	2
	.global	_Z35s3eNextpeerLaunchDashboard_platformv
	.hidden	_Z35s3eNextpeerLaunchDashboard_platformv
	.type	_Z35s3eNextpeerLaunchDashboard_platformv, %function
_Z35s3eNextpeerLaunchDashboard_platformv:
.LFB282:
	.loc 3 221 0
	@ args = 0, pretend = 0, frame = 8
	@ frame_needed = 0, uses_anonymous_args = 0
	str	lr, [sp, #-4]!
.LCFI54:
	sub	sp, sp, #12
.LCFI55:
.LBB12:
	.loc 3 222 0
	bl	_ZL15s3eEdkJNIGetEnvv(PLT)
	mov	r3, r0
	str	r3, [sp, #4]
	.loc 3 223 0
	ldr	r3, .L143
.LPIC110:
	add	r3, pc, r3
	ldr	r2, [r3, #0]
	ldr	r3, .L143+4
.LPIC111:
	add	r3, pc, r3
	ldr	r3, [r3, #0]
	ldr	r0, [sp, #4]
	mov	r1, r2
	mov	r2, r3
	bl	_ZN7_JNIEnv14CallVoidMethodEP8_jobjectP10_jmethodIDz(PLT)
.LBE12:
	.loc 3 224 0
	add	sp, sp, #12
	ldmfd	sp!, {pc}
.L144:
	.align	2
.L143:
	.word	_ZL5g_Obj-(.LPIC110+8)
	.word	_ZL28g_s3eNextpeerLaunchDashboard-(.LPIC111+8)
.LFE282:
	.size	_Z35s3eNextpeerLaunchDashboard_platformv, .-_Z35s3eNextpeerLaunchDashboard_platformv
	.section	.text._Z53s3eNextpeerLaunchDashboardWithCurrencyAmount_platformj,"ax",%progbits
	.align	2
	.global	_Z53s3eNextpeerLaunchDashboardWithCurrencyAmount_platformj
	.hidden	_Z53s3eNextpeerLaunchDashboardWithCurrencyAmount_platformj
	.type	_Z53s3eNextpeerLaunchDashboardWithCurrencyAmount_platformj, %function
_Z53s3eNextpeerLaunchDashboardWithCurrencyAmount_platformj:
.LFB283:
	.loc 3 227 0
	@ args = 0, pretend = 0, frame = 16
	@ frame_needed = 0, uses_anonymous_args = 0
	str	lr, [sp, #-4]!
.LCFI56:
	sub	sp, sp, #20
.LCFI57:
	str	r0, [sp, #4]
.LBB13:
	.loc 3 228 0
	bl	_ZL15s3eEdkJNIGetEnvv(PLT)
	mov	r3, r0
	str	r3, [sp, #12]
	.loc 3 229 0
	ldr	r3, .L147
.LPIC112:
	add	r3, pc, r3
	ldr	r2, [r3, #0]
	ldr	r3, .L147+4
.LPIC113:
	add	r3, pc, r3
	ldr	r3, [r3, #0]
	ldr	r0, [sp, #12]
	mov	r1, r2
	mov	r2, r3
	ldr	r3, [sp, #4]
	bl	_ZN7_JNIEnv14CallVoidMethodEP8_jobjectP10_jmethodIDz(PLT)
.LBE13:
	.loc 3 230 0
	add	sp, sp, #20
	ldmfd	sp!, {pc}
.L148:
	.align	2
.L147:
	.word	_ZL5g_Obj-(.LPIC112+8)
	.word	_ZL46g_s3eNextpeerLaunchDashboardWithCurrencyAmount-(.LPIC113+8)
.LFE283:
	.size	_Z53s3eNextpeerLaunchDashboardWithCurrencyAmount_platformj, .-_Z53s3eNextpeerLaunchDashboardWithCurrencyAmount_platformj
	.section	.text._Z36s3eNextpeerDismissDashboard_platformv,"ax",%progbits
	.align	2
	.global	_Z36s3eNextpeerDismissDashboard_platformv
	.hidden	_Z36s3eNextpeerDismissDashboard_platformv
	.type	_Z36s3eNextpeerDismissDashboard_platformv, %function
_Z36s3eNextpeerDismissDashboard_platformv:
.LFB284:
	.loc 3 233 0
	@ args = 0, pretend = 0, frame = 8
	@ frame_needed = 0, uses_anonymous_args = 0
	str	lr, [sp, #-4]!
.LCFI58:
	sub	sp, sp, #12
.LCFI59:
.LBB14:
	.loc 3 234 0
	bl	_ZL15s3eEdkJNIGetEnvv(PLT)
	mov	r3, r0
	str	r3, [sp, #4]
	.loc 3 235 0
	ldr	r3, .L151
.LPIC114:
	add	r3, pc, r3
	ldr	r2, [r3, #0]
	ldr	r3, .L151+4
.LPIC115:
	add	r3, pc, r3
	ldr	r3, [r3, #0]
	ldr	r0, [sp, #4]
	mov	r1, r2
	mov	r2, r3
	bl	_ZN7_JNIEnv14CallVoidMethodEP8_jobjectP10_jmethodIDz(PLT)
.LBE14:
	.loc 3 236 0
	add	sp, sp, #12
	ldmfd	sp!, {pc}
.L152:
	.align	2
.L151:
	.word	_ZL5g_Obj-(.LPIC114+8)
	.word	_ZL29g_s3eNextpeerDismissDashboard-(.LPIC115+8)
.LFE284:
	.size	_Z36s3eNextpeerDismissDashboard_platformv, .-_Z36s3eNextpeerDismissDashboard_platformv
	.section	.text._Z28s3eNextpeerShutDown_platformv,"ax",%progbits
	.align	2
	.global	_Z28s3eNextpeerShutDown_platformv
	.hidden	_Z28s3eNextpeerShutDown_platformv
	.type	_Z28s3eNextpeerShutDown_platformv, %function
_Z28s3eNextpeerShutDown_platformv:
.LFB285:
	.loc 3 239 0
	@ args = 0, pretend = 0, frame = 8
	@ frame_needed = 0, uses_anonymous_args = 0
	str	lr, [sp, #-4]!
.LCFI60:
	sub	sp, sp, #12
.LCFI61:
.LBB15:
	.loc 3 240 0
	bl	_ZL15s3eEdkJNIGetEnvv(PLT)
	mov	r3, r0
	str	r3, [sp, #4]
	.loc 3 241 0
	ldr	r3, .L155
.LPIC116:
	add	r3, pc, r3
	ldr	r2, [r3, #0]
	ldr	r3, .L155+4
.LPIC117:
	add	r3, pc, r3
	ldr	r3, [r3, #0]
	ldr	r0, [sp, #4]
	mov	r1, r2
	mov	r2, r3
	bl	_ZN7_JNIEnv14CallVoidMethodEP8_jobjectP10_jmethodIDz(PLT)
.LBE15:
	.loc 3 242 0
	add	sp, sp, #12
	ldmfd	sp!, {pc}
.L156:
	.align	2
.L155:
	.word	_ZL5g_Obj-(.LPIC116+8)
	.word	_ZL21g_s3eNextpeerShutDown-(.LPIC117+8)
.LFE285:
	.size	_Z28s3eNextpeerShutDown_platformv, .-_Z28s3eNextpeerShutDown_platformv
	.section	.text._Z51s3eNextpeerReportScoreForCurrentTournament_platformj,"ax",%progbits
	.align	2
	.global	_Z51s3eNextpeerReportScoreForCurrentTournament_platformj
	.hidden	_Z51s3eNextpeerReportScoreForCurrentTournament_platformj
	.type	_Z51s3eNextpeerReportScoreForCurrentTournament_platformj, %function
_Z51s3eNextpeerReportScoreForCurrentTournament_platformj:
.LFB286:
	.loc 3 245 0
	@ args = 0, pretend = 0, frame = 16
	@ frame_needed = 0, uses_anonymous_args = 0
	str	lr, [sp, #-4]!
.LCFI62:
	sub	sp, sp, #20
.LCFI63:
	str	r0, [sp, #4]
.LBB16:
	.loc 3 246 0
	bl	_ZL15s3eEdkJNIGetEnvv(PLT)
	mov	r3, r0
	str	r3, [sp, #12]
	.loc 3 247 0
	ldr	r3, .L159
.LPIC118:
	add	r3, pc, r3
	ldr	r2, [r3, #0]
	ldr	r3, .L159+4
.LPIC119:
	add	r3, pc, r3
	ldr	r3, [r3, #0]
	ldr	r0, [sp, #12]
	mov	r1, r2
	mov	r2, r3
	ldr	r3, [sp, #4]
	bl	_ZN7_JNIEnv14CallVoidMethodEP8_jobjectP10_jmethodIDz(PLT)
.LBE16:
	.loc 3 248 0
	add	sp, sp, #20
	ldmfd	sp!, {pc}
.L160:
	.align	2
.L159:
	.word	_ZL5g_Obj-(.LPIC118+8)
	.word	_ZL44g_s3eNextpeerReportScoreForCurrentTournament-(.LPIC119+8)
.LFE286:
	.size	_Z51s3eNextpeerReportScoreForCurrentTournament_platformj, .-_Z51s3eNextpeerReportScoreForCurrentTournament_platformj
	.section	.text._Z43s3eNextpeerIsCurrentlyInTournament_platformv,"ax",%progbits
	.align	2
	.global	_Z43s3eNextpeerIsCurrentlyInTournament_platformv
	.hidden	_Z43s3eNextpeerIsCurrentlyInTournament_platformv
	.type	_Z43s3eNextpeerIsCurrentlyInTournament_platformv, %function
_Z43s3eNextpeerIsCurrentlyInTournament_platformv:
.LFB287:
	.loc 3 251 0
	@ args = 0, pretend = 0, frame = 8
	@ frame_needed = 0, uses_anonymous_args = 0
	str	lr, [sp, #-4]!
.LCFI64:
	sub	sp, sp, #12
.LCFI65:
.LBB17:
	.loc 3 252 0
	bl	_ZL15s3eEdkJNIGetEnvv(PLT)
	mov	r3, r0
	str	r3, [sp, #4]
	.loc 3 253 0
	ldr	r3, .L163
.LPIC120:
	add	r3, pc, r3
	ldr	r2, [r3, #0]
	ldr	r3, .L163+4
.LPIC121:
	add	r3, pc, r3
	ldr	r3, [r3, #0]
	ldr	r0, [sp, #4]
	mov	r1, r2
	mov	r2, r3
	bl	_ZN7_JNIEnv17CallBooleanMethodEP8_jobjectP10_jmethodIDz(PLT)
	mov	r3, r0
.LBE17:
	.loc 3 254 0
	mov	r0, r3
	add	sp, sp, #12
	ldmfd	sp!, {pc}
.L164:
	.align	2
.L163:
	.word	_ZL5g_Obj-(.LPIC120+8)
	.word	_ZL36g_s3eNextpeerIsCurrentlyInTournament-(.LPIC121+8)
.LFE287:
	.size	_Z43s3eNextpeerIsCurrentlyInTournament_platformv, .-_Z43s3eNextpeerIsCurrentlyInTournament_platformv
	.section	.text._Z40s3eNextpeerTimeLeftInTournament_platformv,"ax",%progbits
	.align	2
	.global	_Z40s3eNextpeerTimeLeftInTournament_platformv
	.hidden	_Z40s3eNextpeerTimeLeftInTournament_platformv
	.type	_Z40s3eNextpeerTimeLeftInTournament_platformv, %function
_Z40s3eNextpeerTimeLeftInTournament_platformv:
.LFB288:
	.loc 3 257 0
	@ args = 0, pretend = 0, frame = 8
	@ frame_needed = 0, uses_anonymous_args = 0
	str	lr, [sp, #-4]!
.LCFI66:
	sub	sp, sp, #12
.LCFI67:
.LBB18:
	.loc 3 258 0
	bl	_ZL15s3eEdkJNIGetEnvv(PLT)
	mov	r3, r0
	str	r3, [sp, #4]
	.loc 3 259 0
	ldr	r3, .L167
.LPIC122:
	add	r3, pc, r3
	ldr	r2, [r3, #0]
	ldr	r3, .L167+4
.LPIC123:
	add	r3, pc, r3
	ldr	r3, [r3, #0]
	ldr	r0, [sp, #4]
	mov	r1, r2
	mov	r2, r3
	bl	_ZN7_JNIEnv13CallIntMethodEP8_jobjectP10_jmethodIDz(PLT)
	mov	r3, r0
.LBE18:
	.loc 3 260 0
	mov	r0, r3
	add	sp, sp, #12
	ldmfd	sp!, {pc}
.L168:
	.align	2
.L167:
	.word	_ZL5g_Obj-(.LPIC122+8)
	.word	_ZL33g_s3eNextpeerTimeLeftInTournament-(.LPIC123+8)
.LFE288:
	.size	_Z40s3eNextpeerTimeLeftInTournament_platformv, .-_Z40s3eNextpeerTimeLeftInTournament_platformv
	.section	.text._Z53s3eNextpeerReportForfeitForCurrentTournament_platformv,"ax",%progbits
	.align	2
	.global	_Z53s3eNextpeerReportForfeitForCurrentTournament_platformv
	.hidden	_Z53s3eNextpeerReportForfeitForCurrentTournament_platformv
	.type	_Z53s3eNextpeerReportForfeitForCurrentTournament_platformv, %function
_Z53s3eNextpeerReportForfeitForCurrentTournament_platformv:
.LFB289:
	.loc 3 263 0
	@ args = 0, pretend = 0, frame = 8
	@ frame_needed = 0, uses_anonymous_args = 0
	str	lr, [sp, #-4]!
.LCFI68:
	sub	sp, sp, #12
.LCFI69:
.LBB19:
	.loc 3 264 0
	bl	_ZL15s3eEdkJNIGetEnvv(PLT)
	mov	r3, r0
	str	r3, [sp, #4]
	.loc 3 265 0
	ldr	r3, .L171
.LPIC124:
	add	r3, pc, r3
	ldr	r2, [r3, #0]
	ldr	r3, .L171+4
.LPIC125:
	add	r3, pc, r3
	ldr	r3, [r3, #0]
	ldr	r0, [sp, #4]
	mov	r1, r2
	mov	r2, r3
	bl	_ZN7_JNIEnv14CallVoidMethodEP8_jobjectP10_jmethodIDz(PLT)
.LBE19:
	.loc 3 266 0
	add	sp, sp, #12
	ldmfd	sp!, {pc}
.L172:
	.align	2
.L171:
	.word	_ZL5g_Obj-(.LPIC124+8)
	.word	_ZL46g_s3eNextpeerReportForfeitForCurrentTournament-(.LPIC125+8)
.LFE289:
	.size	_Z53s3eNextpeerReportForfeitForCurrentTournament_platformv, .-_Z53s3eNextpeerReportForfeitForCurrentTournament_platformv
	.section	.text._Z42s3eNextpeerPushDataToOtherPlayers_platformPKvj,"ax",%progbits
	.align	2
	.global	_Z42s3eNextpeerPushDataToOtherPlayers_platformPKvj
	.hidden	_Z42s3eNextpeerPushDataToOtherPlayers_platformPKvj
	.type	_Z42s3eNextpeerPushDataToOtherPlayers_platformPKvj, %function
_Z42s3eNextpeerPushDataToOtherPlayers_platformPKvj:
.LFB290:
	.loc 3 269 0
	@ args = 0, pretend = 0, frame = 16
	@ frame_needed = 0, uses_anonymous_args = 0
	str	lr, [sp, #-4]!
.LCFI70:
	sub	sp, sp, #28
.LCFI71:
	str	r0, [sp, #12]
	str	r1, [sp, #8]
.LBB20:
	.loc 3 270 0
	bl	_ZL15s3eEdkJNIGetEnvv(PLT)
	mov	r3, r0
	str	r3, [sp, #20]
	.loc 3 271 0
	ldr	r3, .L175
.LPIC126:
	add	r3, pc, r3
	ldr	r2, [r3, #0]
	ldr	r3, .L175+4
.LPIC127:
	add	r3, pc, r3
	ldr	r3, [r3, #0]
	ldr	r1, [sp, #8]
	str	r1, [sp, #0]
	ldr	r0, [sp, #20]
	mov	r1, r2
	mov	r2, r3
	ldr	r3, [sp, #12]
	bl	_ZN7_JNIEnv14CallVoidMethodEP8_jobjectP10_jmethodIDz(PLT)
.LBE20:
	.loc 3 272 0
	add	sp, sp, #28
	ldmfd	sp!, {pc}
.L176:
	.align	2
.L175:
	.word	_ZL5g_Obj-(.LPIC126+8)
	.word	_ZL35g_s3eNextpeerPushDataToOtherPlayers-(.LPIC127+8)
.LFE290:
	.size	_Z42s3eNextpeerPushDataToOtherPlayers_platformPKvj, .-_Z42s3eNextpeerPushDataToOtherPlayers_platformPKvj
	.section	.text._Z50s3eNextpeerPushNotificationToOtherPlayers_platformPKc,"ax",%progbits
	.align	2
	.global	_Z50s3eNextpeerPushNotificationToOtherPlayers_platformPKc
	.hidden	_Z50s3eNextpeerPushNotificationToOtherPlayers_platformPKc
	.type	_Z50s3eNextpeerPushNotificationToOtherPlayers_platformPKc, %function
_Z50s3eNextpeerPushNotificationToOtherPlayers_platformPKc:
.LFB291:
	.loc 3 275 0
	@ args = 0, pretend = 0, frame = 16
	@ frame_needed = 0, uses_anonymous_args = 0
	str	lr, [sp, #-4]!
.LCFI72:
	sub	sp, sp, #20
.LCFI73:
	str	r0, [sp, #4]
.LBB21:
	.loc 3 276 0
	bl	_ZL15s3eEdkJNIGetEnvv(PLT)
	mov	r3, r0
	str	r3, [sp, #8]
	.loc 3 277 0
	ldr	r0, [sp, #8]
	ldr	r1, [sp, #4]
	bl	_ZN7_JNIEnv12NewStringUTFEPKc(PLT)
	mov	r3, r0
	str	r3, [sp, #12]
	.loc 3 278 0
	ldr	r3, .L179
.LPIC128:
	add	r3, pc, r3
	ldr	r2, [r3, #0]
	ldr	r3, .L179+4
.LPIC129:
	add	r3, pc, r3
	ldr	r3, [r3, #0]
	ldr	r0, [sp, #8]
	mov	r1, r2
	mov	r2, r3
	ldr	r3, [sp, #12]
	bl	_ZN7_JNIEnv14CallVoidMethodEP8_jobjectP10_jmethodIDz(PLT)
.LBE21:
	.loc 3 279 0
	add	sp, sp, #20
	ldmfd	sp!, {pc}
.L180:
	.align	2
.L179:
	.word	_ZL5g_Obj-(.LPIC128+8)
	.word	_ZL43g_s3eNextpeerPushNotificationToOtherPlayers-(.LPIC129+8)
.LFE291:
	.size	_Z50s3eNextpeerPushNotificationToOtherPlayers_platformPKc, .-_Z50s3eNextpeerPushNotificationToOtherPlayers_platformPKc
	.section	.text._Z33s3eNextpeerHandleOpenURL_platformPv,"ax",%progbits
	.align	2
	.global	_Z33s3eNextpeerHandleOpenURL_platformPv
	.hidden	_Z33s3eNextpeerHandleOpenURL_platformPv
	.type	_Z33s3eNextpeerHandleOpenURL_platformPv, %function
_Z33s3eNextpeerHandleOpenURL_platformPv:
.LFB292:
	.loc 3 282 0
	@ args = 0, pretend = 0, frame = 16
	@ frame_needed = 0, uses_anonymous_args = 0
	str	lr, [sp, #-4]!
.LCFI74:
	sub	sp, sp, #20
.LCFI75:
	str	r0, [sp, #4]
.LBB22:
	.loc 3 283 0
	bl	_ZL15s3eEdkJNIGetEnvv(PLT)
	mov	r3, r0
	str	r3, [sp, #12]
	.loc 3 284 0
	ldr	r3, .L183
.LPIC130:
	add	r3, pc, r3
	ldr	r2, [r3, #0]
	ldr	r3, .L183+4
.LPIC131:
	add	r3, pc, r3
	ldr	r3, [r3, #0]
	ldr	r0, [sp, #12]
	mov	r1, r2
	mov	r2, r3
	ldr	r3, [sp, #4]
	bl	_ZN7_JNIEnv14CallVoidMethodEP8_jobjectP10_jmethodIDz(PLT)
.LBE22:
	.loc 3 285 0
	add	sp, sp, #20
	ldmfd	sp!, {pc}
.L184:
	.align	2
.L183:
	.word	_ZL5g_Obj-(.LPIC130+8)
	.word	_ZL26g_s3eNextpeerHandleOpenURL-(.LPIC131+8)
.LFE292:
	.size	_Z33s3eNextpeerHandleOpenURL_platformPv, .-_Z33s3eNextpeerHandleOpenURL_platformPv
	.section	.text._Z43s3eNextpeerRegisterOpenURLCallback_platformv,"ax",%progbits
	.align	2
	.global	_Z43s3eNextpeerRegisterOpenURLCallback_platformv
	.hidden	_Z43s3eNextpeerRegisterOpenURLCallback_platformv
	.type	_Z43s3eNextpeerRegisterOpenURLCallback_platformv, %function
_Z43s3eNextpeerRegisterOpenURLCallback_platformv:
.LFB293:
	.loc 3 288 0
	@ args = 0, pretend = 0, frame = 8
	@ frame_needed = 0, uses_anonymous_args = 0
	str	lr, [sp, #-4]!
.LCFI76:
	sub	sp, sp, #12
.LCFI77:
.LBB23:
	.loc 3 289 0
	bl	_ZL15s3eEdkJNIGetEnvv(PLT)
	mov	r3, r0
	str	r3, [sp, #4]
	.loc 3 290 0
	ldr	r3, .L187
.LPIC132:
	add	r3, pc, r3
	ldr	r2, [r3, #0]
	ldr	r3, .L187+4
.LPIC133:
	add	r3, pc, r3
	ldr	r3, [r3, #0]
	ldr	r0, [sp, #4]
	mov	r1, r2
	mov	r2, r3
	bl	_ZN7_JNIEnv14CallVoidMethodEP8_jobjectP10_jmethodIDz(PLT)
.LBE23:
	.loc 3 291 0
	add	sp, sp, #12
	ldmfd	sp!, {pc}
.L188:
	.align	2
.L187:
	.word	_ZL5g_Obj-(.LPIC132+8)
	.word	_ZL36g_s3eNextpeerRegisterOpenURLCallback-(.LPIC133+8)
.LFE293:
	.size	_Z43s3eNextpeerRegisterOpenURLCallback_platformv, .-_Z43s3eNextpeerRegisterOpenURLCallback_platformv
	.section	.text._Z52s3eNextpeerSetUnifiedVirtualCurrencySupport_platformh,"ax",%progbits
	.align	2
	.global	_Z52s3eNextpeerSetUnifiedVirtualCurrencySupport_platformh
	.hidden	_Z52s3eNextpeerSetUnifiedVirtualCurrencySupport_platformh
	.type	_Z52s3eNextpeerSetUnifiedVirtualCurrencySupport_platformh, %function
_Z52s3eNextpeerSetUnifiedVirtualCurrencySupport_platformh:
.LFB294:
	.loc 3 294 0
	@ args = 0, pretend = 0, frame = 16
	@ frame_needed = 0, uses_anonymous_args = 0
	str	lr, [sp, #-4]!
.LCFI78:
	sub	sp, sp, #20
.LCFI79:
	mov	r3, r0
	strb	r3, [sp, #7]
.LBB24:
	.loc 3 295 0
	bl	_ZL15s3eEdkJNIGetEnvv(PLT)
	mov	r3, r0
	str	r3, [sp, #12]
	.loc 3 296 0
	ldr	r3, .L191
.LPIC134:
	add	r3, pc, r3
	ldr	r1, [r3, #0]
	ldr	r3, .L191+4
.LPIC135:
	add	r3, pc, r3
	ldr	r2, [r3, #0]
	ldrb	r3, [sp, #7]	@ zero_extendqisi2
	ldr	r0, [sp, #12]
	bl	_ZN7_JNIEnv14CallVoidMethodEP8_jobjectP10_jmethodIDz(PLT)
.LBE24:
	.loc 3 297 0
	add	sp, sp, #20
	ldmfd	sp!, {pc}
.L192:
	.align	2
.L191:
	.word	_ZL5g_Obj-(.LPIC134+8)
	.word	_ZL45g_s3eNextpeerSetUnifiedVirtualCurrencySupport-(.LPIC135+8)
.LFE294:
	.size	_Z52s3eNextpeerSetUnifiedVirtualCurrencySupport_platformh, .-_Z52s3eNextpeerSetUnifiedVirtualCurrencySupport_platformh
	.section	.text._Z28s3eNextpeerOpenFeed_platformv,"ax",%progbits
	.align	2
	.global	_Z28s3eNextpeerOpenFeed_platformv
	.hidden	_Z28s3eNextpeerOpenFeed_platformv
	.type	_Z28s3eNextpeerOpenFeed_platformv, %function
_Z28s3eNextpeerOpenFeed_platformv:
.LFB295:
	.loc 3 300 0
	@ args = 0, pretend = 0, frame = 8
	@ frame_needed = 0, uses_anonymous_args = 0
	str	lr, [sp, #-4]!
.LCFI80:
	sub	sp, sp, #12
.LCFI81:
.LBB25:
	.loc 3 301 0
	bl	_ZL15s3eEdkJNIGetEnvv(PLT)
	mov	r3, r0
	str	r3, [sp, #4]
	.loc 3 302 0
	ldr	r3, .L195
.LPIC136:
	add	r3, pc, r3
	ldr	r2, [r3, #0]
	ldr	r3, .L195+4
.LPIC137:
	add	r3, pc, r3
	ldr	r3, [r3, #0]
	ldr	r0, [sp, #4]
	mov	r1, r2
	mov	r2, r3
	bl	_ZN7_JNIEnv14CallVoidMethodEP8_jobjectP10_jmethodIDz(PLT)
.LBE25:
	.loc 3 303 0
	add	sp, sp, #12
	ldmfd	sp!, {pc}
.L196:
	.align	2
.L195:
	.word	_ZL5g_Obj-(.LPIC136+8)
	.word	_ZL21g_s3eNextpeerOpenFeed-(.LPIC137+8)
.LFE295:
	.size	_Z28s3eNextpeerOpenFeed_platformv, .-_Z28s3eNextpeerOpenFeed_platformv
	.section	.text._Z36s3eNextpeerRegisterCallback_platform18s3eNextperCallbackPFiPvS0_ES0_,"ax",%progbits
	.align	2
	.global	_Z36s3eNextpeerRegisterCallback_platform18s3eNextperCallbackPFiPvS0_ES0_
	.hidden	_Z36s3eNextpeerRegisterCallback_platform18s3eNextperCallbackPFiPvS0_ES0_
	.type	_Z36s3eNextpeerRegisterCallback_platform18s3eNextperCallbackPFiPvS0_ES0_, %function
_Z36s3eNextpeerRegisterCallback_platform18s3eNextperCallbackPFiPvS0_ES0_:
.LFB296:
	.loc 3 306 0
	@ args = 0, pretend = 0, frame = 24
	@ frame_needed = 0, uses_anonymous_args = 0
	str	lr, [sp, #-4]!
.LCFI82:
	sub	sp, sp, #36
.LCFI83:
	str	r0, [sp, #20]
	str	r1, [sp, #16]
	str	r2, [sp, #12]
.LBB26:
	.loc 3 307 0
	bl	_ZL15s3eEdkJNIGetEnvv(PLT)
	mov	r3, r0
	str	r3, [sp, #28]
	.loc 3 308 0
	ldr	r3, .L199
.LPIC138:
	add	r3, pc, r3
	ldr	r1, [r3, #0]
	ldr	r3, .L199+4
.LPIC139:
	add	r3, pc, r3
	ldr	r2, [r3, #0]
	ldr	r3, [sp, #20]
	ldr	r0, [sp, #16]
	str	r0, [sp, #0]
	ldr	r0, [sp, #12]
	str	r0, [sp, #4]
	ldr	r0, [sp, #28]
	bl	_ZN7_JNIEnv13CallIntMethodEP8_jobjectP10_jmethodIDz(PLT)
	mov	r3, r0
.LBE26:
	.loc 3 309 0
	mov	r0, r3
	add	sp, sp, #36
	ldmfd	sp!, {pc}
.L200:
	.align	2
.L199:
	.word	_ZL5g_Obj-(.LPIC138+8)
	.word	_ZL29g_s3eNextpeerRegisterCallback-(.LPIC139+8)
.LFE296:
	.size	_Z36s3eNextpeerRegisterCallback_platform18s3eNextperCallbackPFiPvS0_ES0_, .-_Z36s3eNextpeerRegisterCallback_platform18s3eNextperCallbackPFiPvS0_ES0_
	.section	.text._Z38s3eNextpeerUnRegisterCallback_platform18s3eNextperCallbackPFiPvS0_E,"ax",%progbits
	.align	2
	.global	_Z38s3eNextpeerUnRegisterCallback_platform18s3eNextperCallbackPFiPvS0_E
	.hidden	_Z38s3eNextpeerUnRegisterCallback_platform18s3eNextperCallbackPFiPvS0_E
	.type	_Z38s3eNextpeerUnRegisterCallback_platform18s3eNextperCallbackPFiPvS0_E, %function
_Z38s3eNextpeerUnRegisterCallback_platform18s3eNextperCallbackPFiPvS0_E:
.LFB297:
	.loc 3 312 0
	@ args = 0, pretend = 0, frame = 16
	@ frame_needed = 0, uses_anonymous_args = 0
	str	lr, [sp, #-4]!
.LCFI84:
	sub	sp, sp, #28
.LCFI85:
	str	r0, [sp, #12]
	str	r1, [sp, #8]
.LBB27:
	.loc 3 313 0
	bl	_ZL15s3eEdkJNIGetEnvv(PLT)
	mov	r3, r0
	str	r3, [sp, #20]
	.loc 3 314 0
	ldr	r3, .L203
.LPIC140:
	add	r3, pc, r3
	ldr	r1, [r3, #0]
	ldr	r3, .L203+4
.LPIC141:
	add	r3, pc, r3
	ldr	r2, [r3, #0]
	ldr	r3, [sp, #12]
	ldr	r0, [sp, #8]
	str	r0, [sp, #0]
	ldr	r0, [sp, #20]
	bl	_ZN7_JNIEnv13CallIntMethodEP8_jobjectP10_jmethodIDz(PLT)
	mov	r3, r0
.LBE27:
	.loc 3 315 0
	mov	r0, r3
	add	sp, sp, #28
	ldmfd	sp!, {pc}
.L204:
	.align	2
.L203:
	.word	_ZL5g_Obj-(.LPIC140+8)
	.word	_ZL31g_s3eNextpeerUnRegisterCallback-(.LPIC141+8)
.LFE297:
	.size	_Z38s3eNextpeerUnRegisterCallback_platform18s3eNextperCallbackPFiPvS0_E, .-_Z38s3eNextpeerUnRegisterCallback_platform18s3eNextperCallbackPFiPvS0_E
	.section	.rodata
	.align	2
.LC41:
	.ascii	"(Ljava/lang/Object;)V\000"
	.section	.data.rel.ro,"aw",%progbits
	.align	2
	.type	_ZZ24s3eNextpeerInit_platformvE18g_JNIthreadMethods, %object
	.size	_ZZ24s3eNextpeerInit_platformvE18g_JNIthreadMethods, 108
_ZZ24s3eNextpeerInit_platformvE18g_JNIthreadMethods:
	.word	.LC1
	.word	.LC13
	.word	_Z22onNextpeerAppearCalledv
	.word	.LC2
	.word	.LC13
	.word	_Z25onNextpeerDisappearCalledv
	.word	.LC3
	.word	.LC13
	.word	_Z28onNextpeerReturnToGameCalledv
	.word	.LC4
	.word	.LC41
	.word	_Z31onReceiveTournamentStatusCalledP7_JNIEnvP8_jobjectS2_
	.word	.LC5
	.word	.LC13
	.word	_Z26onSupportsTournamentCalledv
	.word	.LC6
	.word	.LC13
	.word	_Z23onTournamentStartCalledv
	.word	.LC7
	.word	.LC13
	.word	_Z21onTournamentEndCalledv
	.word	.LC8
	.word	.LC13
	.word	_Z38onReceiveTournamentCustomMessageCalledv
	.word	.LC9
	.word	.LC13
	.word	_Z48onReceiveUnreliableTournamentCustomMessageCalledv
	.section	.debug_frame,"",%progbits
.Lframe0:
	.4byte	.LECIE0-.LSCIE0
.LSCIE0:
	.4byte	0xffffffff
	.byte	0x1
	.ascii	"\000"
	.uleb128 0x1
	.sleb128 -4
	.byte	0xe
	.byte	0xc
	.uleb128 0xd
	.uleb128 0x0
	.align	2
.LECIE0:
.LSFDE0:
	.4byte	.LEFDE0-.LASFDE0
.LASFDE0:
	.4byte	.Lframe0
	.4byte	.LFB2
	.4byte	.LFE2-.LFB2
	.byte	0x4
	.4byte	.LCFI0-.LFB2
	.byte	0xe
	.uleb128 0x4
	.byte	0x4
	.4byte	.LCFI1-.LCFI0
	.byte	0xe
	.uleb128 0x10
	.byte	0x11
	.uleb128 0xe
	.sleb128 1
	.align	2
.LEFDE0:
.LSFDE2:
	.4byte	.LEFDE2-.LASFDE2
.LASFDE2:
	.4byte	.Lframe0
	.4byte	.LFB11
	.4byte	.LFE11-.LFB11
	.byte	0x4
	.4byte	.LCFI2-.LFB11
	.byte	0xe
	.uleb128 0x4
	.byte	0x4
	.4byte	.LCFI3-.LCFI2
	.byte	0xe
	.uleb128 0x10
	.byte	0x11
	.uleb128 0xe
	.sleb128 1
	.align	2
.LEFDE2:
.LSFDE4:
	.4byte	.LEFDE4-.LASFDE4
.LASFDE4:
	.4byte	.Lframe0
	.4byte	.LFB12
	.4byte	.LFE12-.LFB12
	.byte	0x4
	.4byte	.LCFI4-.LFB12
	.byte	0xe
	.uleb128 0x4
	.byte	0x4
	.4byte	.LCFI5-.LCFI4
	.byte	0xe
	.uleb128 0x10
	.byte	0x11
	.uleb128 0xe
	.sleb128 1
	.align	2
.LEFDE4:
.LSFDE6:
	.4byte	.LEFDE6-.LASFDE6
.LASFDE6:
	.4byte	.Lframe0
	.4byte	.LFB13
	.4byte	.LFE13-.LFB13
	.byte	0x4
	.4byte	.LCFI6-.LFB13
	.byte	0xe
	.uleb128 0x4
	.byte	0x4
	.4byte	.LCFI7-.LCFI6
	.byte	0xe
	.uleb128 0x10
	.byte	0x11
	.uleb128 0xe
	.sleb128 1
	.align	2
.LEFDE6:
.LSFDE8:
	.4byte	.LEFDE8-.LASFDE8
.LASFDE8:
	.4byte	.Lframe0
	.4byte	.LFB17
	.4byte	.LFE17-.LFB17
	.byte	0x4
	.4byte	.LCFI8-.LFB17
	.byte	0xe
	.uleb128 0x4
	.byte	0x4
	.4byte	.LCFI9-.LCFI8
	.byte	0xe
	.uleb128 0x10
	.byte	0x11
	.uleb128 0xe
	.sleb128 1
	.align	2
.LEFDE8:
.LSFDE10:
	.4byte	.LEFDE10-.LASFDE10
.LASFDE10:
	.4byte	.Lframe0
	.4byte	.LFB18
	.4byte	.LFE18-.LFB18
	.byte	0x4
	.4byte	.LCFI10-.LFB18
	.byte	0xe
	.uleb128 0x4
	.byte	0x4
	.4byte	.LCFI11-.LCFI10
	.byte	0xe
	.uleb128 0x10
	.byte	0x11
	.uleb128 0xe
	.sleb128 1
	.align	2
.LEFDE10:
.LSFDE12:
	.4byte	.LEFDE12-.LASFDE12
.LASFDE12:
	.4byte	.Lframe0
	.4byte	.LFB19
	.4byte	.LFE19-.LFB19
	.byte	0x4
	.4byte	.LCFI12-.LFB19
	.byte	0xe
	.uleb128 0x4
	.byte	0x4
	.4byte	.LCFI13-.LCFI12
	.byte	0xe
	.uleb128 0x10
	.byte	0x11
	.uleb128 0xe
	.sleb128 1
	.align	2
.LEFDE12:
.LSFDE14:
	.4byte	.LEFDE14-.LASFDE14
.LASFDE14:
	.4byte	.Lframe0
	.4byte	.LFB24
	.4byte	.LFE24-.LFB24
	.byte	0x4
	.4byte	.LCFI14-.LFB24
	.byte	0xe
	.uleb128 0x8
	.byte	0x4
	.4byte	.LCFI15-.LCFI14
	.byte	0xe
	.uleb128 0xc
	.byte	0x4
	.4byte	.LCFI16-.LCFI15
	.byte	0xe
	.uleb128 0x20
	.byte	0x11
	.uleb128 0xe
	.sleb128 3
	.byte	0x11
	.uleb128 0x3
	.sleb128 1
	.byte	0x11
	.uleb128 0x2
	.sleb128 2
	.align	2
.LEFDE14:
.LSFDE16:
	.4byte	.LEFDE16-.LASFDE16
.LASFDE16:
	.4byte	.Lframe0
	.4byte	.LFB29
	.4byte	.LFE29-.LFB29
	.byte	0x4
	.4byte	.LCFI17-.LFB29
	.byte	0xe
	.uleb128 0x4
	.byte	0x4
	.4byte	.LCFI18-.LCFI17
	.byte	0xe
	.uleb128 0x18
	.byte	0x11
	.uleb128 0xe
	.sleb128 1
	.align	2
.LEFDE16:
.LSFDE18:
	.4byte	.LEFDE18-.LASFDE18
.LASFDE18:
	.4byte	.Lframe0
	.4byte	.LFB33
	.4byte	.LFE33-.LFB33
	.byte	0x4
	.4byte	.LCFI19-.LFB33
	.byte	0xe
	.uleb128 0x8
	.byte	0x4
	.4byte	.LCFI20-.LCFI19
	.byte	0xe
	.uleb128 0xc
	.byte	0x4
	.4byte	.LCFI21-.LCFI20
	.byte	0xe
	.uleb128 0x20
	.byte	0x11
	.uleb128 0xe
	.sleb128 3
	.byte	0x11
	.uleb128 0x3
	.sleb128 1
	.byte	0x11
	.uleb128 0x2
	.sleb128 2
	.align	2
.LEFDE18:
.LSFDE20:
	.4byte	.LEFDE20-.LASFDE20
.LASFDE20:
	.4byte	.Lframe0
	.4byte	.LFB45
	.4byte	.LFE45-.LFB45
	.byte	0x4
	.4byte	.LCFI22-.LFB45
	.byte	0xe
	.uleb128 0x8
	.byte	0x4
	.4byte	.LCFI23-.LCFI22
	.byte	0xe
	.uleb128 0xc
	.byte	0x4
	.4byte	.LCFI24-.LCFI23
	.byte	0xe
	.uleb128 0x20
	.byte	0x11
	.uleb128 0xe
	.sleb128 3
	.byte	0x11
	.uleb128 0x3
	.sleb128 1
	.byte	0x11
	.uleb128 0x2
	.sleb128 2
	.align	2
.LEFDE20:
.LSFDE22:
	.4byte	.LEFDE22-.LASFDE22
.LASFDE22:
	.4byte	.Lframe0
	.4byte	.LFB57
	.4byte	.LFE57-.LFB57
	.byte	0x4
	.4byte	.LCFI25-.LFB57
	.byte	0xe
	.uleb128 0x8
	.byte	0x4
	.4byte	.LCFI26-.LCFI25
	.byte	0xe
	.uleb128 0xc
	.byte	0x4
	.4byte	.LCFI27-.LCFI26
	.byte	0xe
	.uleb128 0x20
	.byte	0x11
	.uleb128 0xe
	.sleb128 3
	.byte	0x11
	.uleb128 0x3
	.sleb128 1
	.byte	0x11
	.uleb128 0x2
	.sleb128 2
	.align	2
.LEFDE22:
.LSFDE24:
	.4byte	.LEFDE24-.LASFDE24
.LASFDE24:
	.4byte	.Lframe0
	.4byte	.LFB163
	.4byte	.LFE163-.LFB163
	.byte	0x4
	.4byte	.LCFI28-.LFB163
	.byte	0xe
	.uleb128 0x4
	.byte	0x4
	.4byte	.LCFI29-.LCFI28
	.byte	0xe
	.uleb128 0x10
	.byte	0x11
	.uleb128 0xe
	.sleb128 1
	.align	2
.LEFDE24:
.LSFDE26:
	.4byte	.LEFDE26-.LASFDE26
.LASFDE26:
	.4byte	.Lframe0
	.4byte	.LFB211
	.4byte	.LFE211-.LFB211
	.byte	0x4
	.4byte	.LCFI30-.LFB211
	.byte	0xe
	.uleb128 0x4
	.byte	0x4
	.4byte	.LCFI31-.LCFI30
	.byte	0xe
	.uleb128 0x18
	.byte	0x11
	.uleb128 0xe
	.sleb128 1
	.align	2
.LEFDE26:
.LSFDE28:
	.4byte	.LEFDE28-.LASFDE28
.LASFDE28:
	.4byte	.Lframe0
	.4byte	.LFB232
	.4byte	.LFE232-.LFB232
	.byte	0x4
	.4byte	.LCFI32-.LFB232
	.byte	0xe
	.uleb128 0x4
	.byte	0x4
	.4byte	.LCFI33-.LCFI32
	.byte	0xe
	.uleb128 0x18
	.byte	0x11
	.uleb128 0xe
	.sleb128 1
	.align	2
.LEFDE28:
.LSFDE30:
	.4byte	.LEFDE30-.LASFDE30
.LASFDE30:
	.4byte	.Lframe0
	.4byte	.LFB234
	.4byte	.LFE234-.LFB234
	.byte	0x4
	.4byte	.LCFI34-.LFB234
	.byte	0xe
	.uleb128 0x4
	.byte	0x4
	.4byte	.LCFI35-.LCFI34
	.byte	0xe
	.uleb128 0x10
	.byte	0x11
	.uleb128 0xe
	.sleb128 1
	.align	2
.LEFDE30:
.LSFDE32:
	.4byte	.LEFDE32-.LASFDE32
.LASFDE32:
	.4byte	.Lframe0
	.4byte	.LFB235
	.4byte	.LFE235-.LFB235
	.byte	0x4
	.4byte	.LCFI36-.LFB235
	.byte	0xe
	.uleb128 0x4
	.byte	0x4
	.4byte	.LCFI37-.LCFI36
	.byte	0xe
	.uleb128 0x20
	.byte	0x11
	.uleb128 0xe
	.sleb128 1
	.align	2
.LEFDE32:
.LSFDE34:
	.4byte	.LEFDE34-.LASFDE34
.LASFDE34:
	.4byte	.Lframe0
	.4byte	.LFB236
	.4byte	.LFE236-.LFB236
	.byte	0x4
	.4byte	.LCFI38-.LFB236
	.byte	0xe
	.uleb128 0x4
	.byte	0x4
	.4byte	.LCFI39-.LCFI38
	.byte	0xe
	.uleb128 0x10
	.byte	0x11
	.uleb128 0xe
	.sleb128 1
	.align	2
.LEFDE34:
.LSFDE36:
	.4byte	.LEFDE36-.LASFDE36
.LASFDE36:
	.4byte	.Lframe0
	.4byte	.LFB270
	.4byte	.LFE270-.LFB270
	.byte	0x4
	.4byte	.LCFI40-.LFB270
	.byte	0xe
	.uleb128 0x8
	.byte	0x11
	.uleb128 0xe
	.sleb128 1
	.byte	0x11
	.uleb128 0x4
	.sleb128 2
	.align	2
.LEFDE36:
.LSFDE38:
	.4byte	.LEFDE38-.LASFDE38
.LASFDE38:
	.4byte	.Lframe0
	.4byte	.LFB271
	.4byte	.LFE271-.LFB271
	.byte	0x4
	.4byte	.LCFI41-.LFB271
	.byte	0xe
	.uleb128 0x8
	.byte	0x11
	.uleb128 0xe
	.sleb128 1
	.byte	0x11
	.uleb128 0x4
	.sleb128 2
	.align	2
.LEFDE38:
.LSFDE40:
	.4byte	.LEFDE40-.LASFDE40
.LASFDE40:
	.4byte	.Lframe0
	.4byte	.LFB272
	.4byte	.LFE272-.LFB272
	.byte	0x4
	.4byte	.LCFI42-.LFB272
	.byte	0xe
	.uleb128 0x8
	.byte	0x11
	.uleb128 0xe
	.sleb128 1
	.byte	0x11
	.uleb128 0x4
	.sleb128 2
	.align	2
.LEFDE40:
.LSFDE42:
	.4byte	.LEFDE42-.LASFDE42
.LASFDE42:
	.4byte	.Lframe0
	.4byte	.LFB273
	.4byte	.LFE273-.LFB273
	.byte	0x4
	.4byte	.LCFI43-.LFB273
	.byte	0xe
	.uleb128 0x4
	.byte	0x4
	.4byte	.LCFI44-.LCFI43
	.byte	0xe
	.uleb128 0x30
	.byte	0x11
	.uleb128 0xe
	.sleb128 1
	.align	2
.LEFDE42:
.LSFDE44:
	.4byte	.LEFDE44-.LASFDE44
.LASFDE44:
	.4byte	.Lframe0
	.4byte	.LFB274
	.4byte	.LFE274-.LFB274
	.byte	0x4
	.4byte	.LCFI45-.LFB274
	.byte	0xe
	.uleb128 0x8
	.byte	0x11
	.uleb128 0xe
	.sleb128 1
	.byte	0x11
	.uleb128 0x4
	.sleb128 2
	.align	2
.LEFDE44:
.LSFDE46:
	.4byte	.LEFDE46-.LASFDE46
.LASFDE46:
	.4byte	.Lframe0
	.4byte	.LFB275
	.4byte	.LFE275-.LFB275
	.byte	0x4
	.4byte	.LCFI46-.LFB275
	.byte	0xe
	.uleb128 0x8
	.byte	0x11
	.uleb128 0xe
	.sleb128 1
	.byte	0x11
	.uleb128 0x4
	.sleb128 2
	.align	2
.LEFDE46:
.LSFDE48:
	.4byte	.LEFDE48-.LASFDE48
.LASFDE48:
	.4byte	.Lframe0
	.4byte	.LFB276
	.4byte	.LFE276-.LFB276
	.byte	0x4
	.4byte	.LCFI47-.LFB276
	.byte	0xe
	.uleb128 0x8
	.byte	0x11
	.uleb128 0xe
	.sleb128 1
	.byte	0x11
	.uleb128 0x4
	.sleb128 2
	.align	2
.LEFDE48:
.LSFDE50:
	.4byte	.LEFDE50-.LASFDE50
.LASFDE50:
	.4byte	.Lframe0
	.4byte	.LFB277
	.4byte	.LFE277-.LFB277
	.byte	0x4
	.4byte	.LCFI48-.LFB277
	.byte	0xe
	.uleb128 0x8
	.byte	0x11
	.uleb128 0xe
	.sleb128 1
	.byte	0x11
	.uleb128 0x4
	.sleb128 2
	.align	2
.LEFDE50:
.LSFDE52:
	.4byte	.LEFDE52-.LASFDE52
.LASFDE52:
	.4byte	.Lframe0
	.4byte	.LFB278
	.4byte	.LFE278-.LFB278
	.byte	0x4
	.4byte	.LCFI49-.LFB278
	.byte	0xe
	.uleb128 0x8
	.byte	0x11
	.uleb128 0xe
	.sleb128 1
	.byte	0x11
	.uleb128 0x4
	.sleb128 2
	.align	2
.LEFDE52:
.LSFDE54:
	.4byte	.LEFDE54-.LASFDE54
.LASFDE54:
	.4byte	.Lframe0
	.4byte	.LFB279
	.4byte	.LFE279-.LFB279
	.byte	0x4
	.4byte	.LCFI50-.LFB279
	.byte	0xe
	.uleb128 0x4
	.byte	0x4
	.4byte	.LCFI51-.LCFI50
	.byte	0xe
	.uleb128 0x20
	.byte	0x11
	.uleb128 0xe
	.sleb128 1
	.align	2
.LEFDE54:
.LSFDE56:
	.4byte	.LEFDE56-.LASFDE56
.LASFDE56:
	.4byte	.Lframe0
	.4byte	.LFB280
	.4byte	.LFE280-.LFB280
	.align	2
.LEFDE56:
.LSFDE58:
	.4byte	.LEFDE58-.LASFDE58
.LASFDE58:
	.4byte	.Lframe0
	.4byte	.LFB281
	.4byte	.LFE281-.LFB281
	.byte	0x4
	.4byte	.LCFI52-.LFB281
	.byte	0xe
	.uleb128 0x4
	.byte	0x4
	.4byte	.LCFI53-.LCFI52
	.byte	0xe
	.uleb128 0x18
	.byte	0x11
	.uleb128 0xe
	.sleb128 1
	.align	2
.LEFDE58:
.LSFDE60:
	.4byte	.LEFDE60-.LASFDE60
.LASFDE60:
	.4byte	.Lframe0
	.4byte	.LFB282
	.4byte	.LFE282-.LFB282
	.byte	0x4
	.4byte	.LCFI54-.LFB282
	.byte	0xe
	.uleb128 0x4
	.byte	0x4
	.4byte	.LCFI55-.LCFI54
	.byte	0xe
	.uleb128 0x10
	.byte	0x11
	.uleb128 0xe
	.sleb128 1
	.align	2
.LEFDE60:
.LSFDE62:
	.4byte	.LEFDE62-.LASFDE62
.LASFDE62:
	.4byte	.Lframe0
	.4byte	.LFB283
	.4byte	.LFE283-.LFB283
	.byte	0x4
	.4byte	.LCFI56-.LFB283
	.byte	0xe
	.uleb128 0x4
	.byte	0x4
	.4byte	.LCFI57-.LCFI56
	.byte	0xe
	.uleb128 0x18
	.byte	0x11
	.uleb128 0xe
	.sleb128 1
	.align	2
.LEFDE62:
.LSFDE64:
	.4byte	.LEFDE64-.LASFDE64
.LASFDE64:
	.4byte	.Lframe0
	.4byte	.LFB284
	.4byte	.LFE284-.LFB284
	.byte	0x4
	.4byte	.LCFI58-.LFB284
	.byte	0xe
	.uleb128 0x4
	.byte	0x4
	.4byte	.LCFI59-.LCFI58
	.byte	0xe
	.uleb128 0x10
	.byte	0x11
	.uleb128 0xe
	.sleb128 1
	.align	2
.LEFDE64:
.LSFDE66:
	.4byte	.LEFDE66-.LASFDE66
.LASFDE66:
	.4byte	.Lframe0
	.4byte	.LFB285
	.4byte	.LFE285-.LFB285
	.byte	0x4
	.4byte	.LCFI60-.LFB285
	.byte	0xe
	.uleb128 0x4
	.byte	0x4
	.4byte	.LCFI61-.LCFI60
	.byte	0xe
	.uleb128 0x10
	.byte	0x11
	.uleb128 0xe
	.sleb128 1
	.align	2
.LEFDE66:
.LSFDE68:
	.4byte	.LEFDE68-.LASFDE68
.LASFDE68:
	.4byte	.Lframe0
	.4byte	.LFB286
	.4byte	.LFE286-.LFB286
	.byte	0x4
	.4byte	.LCFI62-.LFB286
	.byte	0xe
	.uleb128 0x4
	.byte	0x4
	.4byte	.LCFI63-.LCFI62
	.byte	0xe
	.uleb128 0x18
	.byte	0x11
	.uleb128 0xe
	.sleb128 1
	.align	2
.LEFDE68:
.LSFDE70:
	.4byte	.LEFDE70-.LASFDE70
.LASFDE70:
	.4byte	.Lframe0
	.4byte	.LFB287
	.4byte	.LFE287-.LFB287
	.byte	0x4
	.4byte	.LCFI64-.LFB287
	.byte	0xe
	.uleb128 0x4
	.byte	0x4
	.4byte	.LCFI65-.LCFI64
	.byte	0xe
	.uleb128 0x10
	.byte	0x11
	.uleb128 0xe
	.sleb128 1
	.align	2
.LEFDE70:
.LSFDE72:
	.4byte	.LEFDE72-.LASFDE72
.LASFDE72:
	.4byte	.Lframe0
	.4byte	.LFB288
	.4byte	.LFE288-.LFB288
	.byte	0x4
	.4byte	.LCFI66-.LFB288
	.byte	0xe
	.uleb128 0x4
	.byte	0x4
	.4byte	.LCFI67-.LCFI66
	.byte	0xe
	.uleb128 0x10
	.byte	0x11
	.uleb128 0xe
	.sleb128 1
	.align	2
.LEFDE72:
.LSFDE74:
	.4byte	.LEFDE74-.LASFDE74
.LASFDE74:
	.4byte	.Lframe0
	.4byte	.LFB289
	.4byte	.LFE289-.LFB289
	.byte	0x4
	.4byte	.LCFI68-.LFB289
	.byte	0xe
	.uleb128 0x4
	.byte	0x4
	.4byte	.LCFI69-.LCFI68
	.byte	0xe
	.uleb128 0x10
	.byte	0x11
	.uleb128 0xe
	.sleb128 1
	.align	2
.LEFDE74:
.LSFDE76:
	.4byte	.LEFDE76-.LASFDE76
.LASFDE76:
	.4byte	.Lframe0
	.4byte	.LFB290
	.4byte	.LFE290-.LFB290
	.byte	0x4
	.4byte	.LCFI70-.LFB290
	.byte	0xe
	.uleb128 0x4
	.byte	0x4
	.4byte	.LCFI71-.LCFI70
	.byte	0xe
	.uleb128 0x20
	.byte	0x11
	.uleb128 0xe
	.sleb128 1
	.align	2
.LEFDE76:
.LSFDE78:
	.4byte	.LEFDE78-.LASFDE78
.LASFDE78:
	.4byte	.Lframe0
	.4byte	.LFB291
	.4byte	.LFE291-.LFB291
	.byte	0x4
	.4byte	.LCFI72-.LFB291
	.byte	0xe
	.uleb128 0x4
	.byte	0x4
	.4byte	.LCFI73-.LCFI72
	.byte	0xe
	.uleb128 0x18
	.byte	0x11
	.uleb128 0xe
	.sleb128 1
	.align	2
.LEFDE78:
.LSFDE80:
	.4byte	.LEFDE80-.LASFDE80
.LASFDE80:
	.4byte	.Lframe0
	.4byte	.LFB292
	.4byte	.LFE292-.LFB292
	.byte	0x4
	.4byte	.LCFI74-.LFB292
	.byte	0xe
	.uleb128 0x4
	.byte	0x4
	.4byte	.LCFI75-.LCFI74
	.byte	0xe
	.uleb128 0x18
	.byte	0x11
	.uleb128 0xe
	.sleb128 1
	.align	2
.LEFDE80:
.LSFDE82:
	.4byte	.LEFDE82-.LASFDE82
.LASFDE82:
	.4byte	.Lframe0
	.4byte	.LFB293
	.4byte	.LFE293-.LFB293
	.byte	0x4
	.4byte	.LCFI76-.LFB293
	.byte	0xe
	.uleb128 0x4
	.byte	0x4
	.4byte	.LCFI77-.LCFI76
	.byte	0xe
	.uleb128 0x10
	.byte	0x11
	.uleb128 0xe
	.sleb128 1
	.align	2
.LEFDE82:
.LSFDE84:
	.4byte	.LEFDE84-.LASFDE84
.LASFDE84:
	.4byte	.Lframe0
	.4byte	.LFB294
	.4byte	.LFE294-.LFB294
	.byte	0x4
	.4byte	.LCFI78-.LFB294
	.byte	0xe
	.uleb128 0x4
	.byte	0x4
	.4byte	.LCFI79-.LCFI78
	.byte	0xe
	.uleb128 0x18
	.byte	0x11
	.uleb128 0xe
	.sleb128 1
	.align	2
.LEFDE84:
.LSFDE86:
	.4byte	.LEFDE86-.LASFDE86
.LASFDE86:
	.4byte	.Lframe0
	.4byte	.LFB295
	.4byte	.LFE295-.LFB295
	.byte	0x4
	.4byte	.LCFI80-.LFB295
	.byte	0xe
	.uleb128 0x4
	.byte	0x4
	.4byte	.LCFI81-.LCFI80
	.byte	0xe
	.uleb128 0x10
	.byte	0x11
	.uleb128 0xe
	.sleb128 1
	.align	2
.LEFDE86:
.LSFDE88:
	.4byte	.LEFDE88-.LASFDE88
.LASFDE88:
	.4byte	.Lframe0
	.4byte	.LFB296
	.4byte	.LFE296-.LFB296
	.byte	0x4
	.4byte	.LCFI82-.LFB296
	.byte	0xe
	.uleb128 0x4
	.byte	0x4
	.4byte	.LCFI83-.LCFI82
	.byte	0xe
	.uleb128 0x28
	.byte	0x11
	.uleb128 0xe
	.sleb128 1
	.align	2
.LEFDE88:
.LSFDE90:
	.4byte	.LEFDE90-.LASFDE90
.LASFDE90:
	.4byte	.Lframe0
	.4byte	.LFB297
	.4byte	.LFE297-.LFB297
	.byte	0x4
	.4byte	.LCFI84-.LFB297
	.byte	0xe
	.uleb128 0x4
	.byte	0x4
	.4byte	.LCFI85-.LCFI84
	.byte	0xe
	.uleb128 0x20
	.byte	0x11
	.uleb128 0xe
	.sleb128 1
	.align	2
.LEFDE90:
	.text
.Letext0:
	.section	.note.GNU-stack,"",%progbits
